
Discarded input sections

 .data          0x0000000000000000        0x0 arch/arm/cpu/armv8/start.o
 .bss           0x0000000000000000        0x0 arch/arm/cpu/armv8/start.o
 .text.sdelay   0x0000000000000000        0xc arch/arm/cpu/armv8/built-in.o
 .text.timer_read_counter
                0x0000000000000000        0xc arch/arm/cpu/armv8/built-in.o
 .text.timer_get_boot_us
                0x0000000000000000       0x28 arch/arm/cpu/armv8/built-in.o
 .text.set_one_region
                0x0000000000000000       0xd8 arch/arm/cpu/armv8/built-in.o
 .text.arch_get_page_table
                0x0000000000000000       0x20 arch/arm/cpu/armv8/built-in.o
 .text.mmu_set_region_dcache_behaviour
                0x0000000000000000       0xa8 arch/arm/cpu/armv8/built-in.o
 .text.mmu_change_region_attr
                0x0000000000000000       0xe8 arch/arm/cpu/armv8/built-in.o
 .text.__asm_switch_ttbr
                0x0000000000000000       0xe0 arch/arm/cpu/armv8/built-in.o
 .text.armv8_switch_to_el1
                0x0000000000000000       0xd0 arch/arm/cpu/armv8/built-in.o
 .text.armv8_el2_to_aarch32
                0x0000000000000000        0x4 arch/arm/cpu/armv8/built-in.o
 .text.psci_system_reset
                0x0000000000000000       0x20 arch/arm/cpu/armv8/built-in.o
 .text.psci_system_off
                0x0000000000000000       0x20 arch/arm/cpu/armv8/built-in.o
 .text.sec_firmware_is_valid
                0x0000000000000000       0x54 arch/arm/cpu/armv8/built-in.o
 .text.sec_firmware_support_hwrng
                0x0000000000000000        0x8 arch/arm/cpu/armv8/built-in.o
 .text.sec_firmware_init
                0x0000000000000000      0x3f8 arch/arm/cpu/armv8/built-in.o
 .text.__board_assert_mem_reset
                0x0000000000000000        0x8 arch/arm/cpu/armv8/built-in.o
 .text.__board_deassert_mem_reset
                0x0000000000000000        0x8 arch/arm/cpu/armv8/built-in.o
 .text.__board_need_mem_reset
                0x0000000000000000       0x10 arch/arm/cpu/armv8/built-in.o
 .text.cpu_mmc_init
                0x0000000000000000        0x4 arch/arm/cpu/armv8/built-in.o
 .text.board_reserve_ram_top
                0x0000000000000000        0x8 arch/arm/cpu/armv8/built-in.o
 .text.update_early_mmu_table
                0x0000000000000000       0x68 arch/arm/cpu/armv8/built-in.o
 .text.soc_has_dp_ddr
                0x0000000000000000       0x40 arch/arm/cpu/armv8/built-in.o
 .text.soc_has_aiop
                0x0000000000000000       0x24 arch/arm/cpu/armv8/built-in.o
 .text.erratum_a008850_post
                0x0000000000000000        0x4 arch/arm/cpu/armv8/built-in.o
 .text.board_switch_core_volt
                0x0000000000000000        0x8 arch/arm/cpu/armv8/built-in.o
 .text.fsl_setenv_mcinitcmd
                0x0000000000000000       0x18 arch/arm/cpu/armv8/built-in.o
 .text.determine_mp_bootpg
                0x0000000000000000        0xc arch/arm/cpu/armv8/built-in.o
 .text.fsl_fdt_disable_usb
                0x0000000000000000        0x4 arch/arm/cpu/armv8/built-in.o
 .text.get_dspi_freq
                0x0000000000000000        0x4 arch/arm/cpu/armv8/built-in.o
 .text.serdes_get_first_lane
                0x0000000000000000       0x94 arch/arm/cpu/armv8/built-in.o
 .text.get_serdes_protocol
                0x0000000000000000       0x14 arch/arm/cpu/armv8/built-in.o
 .text.serdes_clock_to_string
                0x0000000000000000       0x38 arch/arm/cpu/armv8/built-in.o
 .text.get_serdes_volt
                0x0000000000000000        0x8 arch/arm/cpu/armv8/built-in.o
 .text.set_serdes_volt
                0x0000000000000000        0x8 arch/arm/cpu/armv8/built-in.o
 .rodata.arch_get_page_table.str1.1
                0x0000000000000000       0x1e arch/arm/cpu/armv8/built-in.o
 .rodata.mmu_set_region_dcache_behaviour.str1.1
                0x0000000000000000       0x20 arch/arm/cpu/armv8/built-in.o
 .rodata.set_one_region.str1.1
                0x0000000000000000       0x2e arch/arm/cpu/armv8/built-in.o
 .rodata.__func__.8615
                0x0000000000000000       0x21 arch/arm/cpu/armv8/built-in.o
 .rodata.sec_firmware_init.str1.1
                0x0000000000000000      0x248 arch/arm/cpu/armv8/built-in.o
 .rodata.sec_firmware_is_valid.str1.1
                0x0000000000000000       0x67 arch/arm/cpu/armv8/built-in.o
 .rodata.serdes_clock_to_string.str1.1
                0x0000000000000000        0xf arch/arm/cpu/armv8/built-in.o
 .rodata.serdes_get_first_lane.str1.1
                0x0000000000000000       0x12 arch/arm/cpu/armv8/built-in.o
 .data          0x0000000000000000        0x0 arch/arm/cpu/armv8/built-in.o
 .bss           0x0000000000000000        0x0 arch/arm/cpu/armv8/built-in.o
 .bss.sec_firmware_addr
                0x0000000000000000        0x8 arch/arm/cpu/armv8/built-in.o
 .text.fdt_update_ethernet_dt
                0x0000000000000000        0x8 arch/arm/lib/built-in.o
 .text.setup_board_tags
                0x0000000000000000        0x4 arch/arm/lib/built-in.o
 .text.armv7_boot_nonsec_default
                0x0000000000000000        0x8 arch/arm/lib/built-in.o
 .text.update_os_arch_secondary_cores
                0x0000000000000000        0x4 arch/arm/lib/built-in.o
 .text.enable_caches
                0x0000000000000000        0xc arch/arm/lib/built-in.o
 .text.invalidate_dcache_range
                0x0000000000000000        0x4 arch/arm/lib/built-in.o
 .text.flush_dcache_range
                0x0000000000000000        0x4 arch/arm/lib/built-in.o
 .text.flush_dcache_all
                0x0000000000000000        0xc arch/arm/lib/built-in.o
 .text.check_cache_range
                0x0000000000000000       0x40 arch/arm/lib/built-in.o
 .rodata.check_cache_range.str1.1
                0x0000000000000000       0x35 arch/arm/lib/built-in.o
 .rodata.enable_caches.str1.1
                0x0000000000000000       0x1d arch/arm/lib/built-in.o
 .data          0x0000000000000000        0x0 arch/arm/lib/built-in.o
 .__efi_runtime_rel_start
                0x0000000000000000        0x0 arch/arm/lib/built-in.o
 .__efi_runtime_rel_stop
                0x0000000000000000        0x0 arch/arm/lib/built-in.o
 .__efi_runtime_start
                0x0000000000000000        0x0 arch/arm/lib/built-in.o
 .__efi_runtime_stop
                0x0000000000000000        0x0 arch/arm/lib/built-in.o
 .__end         0x0000000000000000        0x0 arch/arm/lib/built-in.o
 .__secure_end  0x0000000000000000        0x0 arch/arm/lib/built-in.o
 .__secure_stack_end
                0x0000000000000000        0x0 arch/arm/lib/built-in.o
 .__secure_stack_start
                0x0000000000000000        0x0 arch/arm/lib/built-in.o
 .__secure_start
                0x0000000000000000        0x0 arch/arm/lib/built-in.o
 .bss           0x0000000000000000        0x0 arch/arm/lib/built-in.o
 .text          0x0000000000000000        0x0 board/freescale/common/built-in.o
 .text.fdt_set_phy_handle
                0x0000000000000000       0xa0 board/freescale/common/built-in.o
 .text.serdes_device_from_fm_port
                0x0000000000000000       0x20 board/freescale/common/built-in.o
 .text.set_pcie_ns_access
                0x0000000000000000       0x78 board/freescale/common/built-in.o
 .rodata.fdt_set_phy_handle.str1.1
                0x0000000000000000        0xb board/freescale/common/built-in.o
 .rodata.srds_table.10303
                0x0000000000000000       0x54 board/freescale/common/built-in.o
 .data          0x0000000000000000        0x0 board/freescale/common/built-in.o
 .bss           0x0000000000000000        0x0 board/freescale/common/built-in.o
 .text          0x0000000000000000        0x0 board/freescale/ls1046afrwy/built-in.o
 .text.__board_assert_mem_reset
                0x0000000000000000        0x4 board/freescale/ls1046afrwy/built-in.o
 .text.__board_deassert_mem_reset
                0x0000000000000000        0x4 board/freescale/ls1046afrwy/built-in.o
 .text.__board_need_mem_reset
                0x0000000000000000        0x8 board/freescale/ls1046afrwy/built-in.o
 .text.led_on_test
                0x0000000000000000       0xd4 board/freescale/ls1046afrwy/built-in.o
 .rodata.led_on_test.str1.1
                0x0000000000000000       0x25 board/freescale/ls1046afrwy/built-in.o
 .data          0x0000000000000000        0x0 board/freescale/ls1046afrwy/built-in.o
 .bss           0x0000000000000000        0x0 board/freescale/ls1046afrwy/built-in.o
 .text          0x0000000000000000        0x0 cmd/built-in.o
 .text.invalidate_icache_all
                0x0000000000000000        0xc cmd/built-in.o
 .text.flush_dcache_all
                0x0000000000000000        0xc cmd/built-in.o
 .text.get_itb_length
                0x0000000000000000       0x20 cmd/built-in.o
 .rodata.flush_dcache_all.str1.1
                0x0000000000000000       0x2e cmd/built-in.o
 .rodata.invalidate_icache_all.str1.1
                0x0000000000000000       0x33 cmd/built-in.o
 .data          0x0000000000000000        0x0 cmd/built-in.o
 .bss           0x0000000000000000        0x0 cmd/built-in.o
 .text          0x0000000000000000        0x0 common/built-in.o
 .text.hash_progressive_lookup_algo
                0x0000000000000000       0x90 common/built-in.o
 .text.hash_parse_string
                0x0000000000000000       0x7c common/built-in.o
 .text.hash_block
                0x0000000000000000       0x88 common/built-in.o
 .text.unset_local_var
                0x0000000000000000       0xbc common/built-in.o
 .text.arch_cpu_init
                0x0000000000000000        0x8 common/built-in.o
 .text.dram_init_banksize
                0x0000000000000000       0x34 common/built-in.o
 .text.coloured_LED_init
                0x0000000000000000        0x4 common/built-in.o
 .text.red_led_on
                0x0000000000000000        0x4 common/built-in.o
 .text.red_led_off
                0x0000000000000000        0x4 common/built-in.o
 .text.green_led_on
                0x0000000000000000        0x4 common/built-in.o
 .text.green_led_off
                0x0000000000000000        0x4 common/built-in.o
 .text.yellow_led_on
                0x0000000000000000        0x4 common/built-in.o
 .text.yellow_led_off
                0x0000000000000000        0x4 common/built-in.o
 .text.blue_led_on
                0x0000000000000000        0x4 common/built-in.o
 .text.blue_led_off
                0x0000000000000000        0x4 common/built-in.o
 .text.board_add_ram_info
                0x0000000000000000        0x4 common/built-in.o
 .text.arch_reserve_stacks
                0x0000000000000000        0x8 common/built-in.o
 .text.power_init_board
                0x0000000000000000        0x8 common/built-in.o
 .text.board_flash_wp_on
                0x0000000000000000        0x8 common/built-in.o
 .text.fixup_cpu
                0x0000000000000000        0x8 common/built-in.o
 .text.checkboard
                0x0000000000000000        0x8 common/built-in.o
 .text.board_quiesce_devices
                0x0000000000000000        0x4 common/built-in.o
 .text.switch_to_non_secure_mode
                0x0000000000000000        0x4 common/built-in.o
 .text.fdt_read_prop
                0x0000000000000000       0x48 common/built-in.o
 .text.fdt_getprop_u32_default_node
                0x0000000000000000       0x4c common/built-in.o
 .text.fdt_getprop_u32_default
                0x0000000000000000       0x5c common/built-in.o
 .text.do_fixup_by_prop_u32
                0x0000000000000000       0x28 common/built-in.o
 .text.fdt_record_loadable
                0x0000000000000000      0x178 common/built-in.o
 .text.fdt_pci_dma_ranges
                0x0000000000000000      0x12c common/built-in.o
 .text.fdt_set_status_by_alias
                0x0000000000000000       0x40 common/built-in.o
 .text.fdt_verify_alias_address
                0x0000000000000000       0xdc common/built-in.o
 .text.fdt_get_base_address
                0x0000000000000000       0x4c common/built-in.o
 .text.fdt_read_range
                0x0000000000000000      0x154 common/built-in.o
 .text.fdt_setup_simplefb_node
                0x0000000000000000      0x1fc common/built-in.o
 .text.fdt_fixup_display
                0x0000000000000000       0xe8 common/built-in.o
 .text.mdio_free
                0x0000000000000000        0x4 common/built-in.o
 .text.mdio_register_seq
                0x0000000000000000       0x48 common/built-in.o
 .text.mdio_unregister
                0x0000000000000000       0x30 common/built-in.o
 .text.mdio_get_list_head
                0x0000000000000000        0xc common/built-in.o
 .text.usb_submit_int_msg
                0x0000000000000000        0x4 common/built-in.o
 .text.usb_set_protocol
                0x0000000000000000       0x4c common/built-in.o
 .text.usb_set_idle
                0x0000000000000000       0x4c common/built-in.o
 .text.usb_get_report
                0x0000000000000000       0x5c common/built-in.o
 .text.usb_get_class_descriptor
                0x0000000000000000       0x5c common/built-in.o
 .text.board_usb_init
                0x0000000000000000        0x8 common/built-in.o
 .text.board_usb_cleanup
                0x0000000000000000        0x8 common/built-in.o
 .text.usb_find_usb2_hub_address_port
                0x0000000000000000       0x90 common/built-in.o
 .text.usb_hub_probe
                0x0000000000000000       0x54 common/built-in.o
 .text.splash_screen_prepare
                0x0000000000000000        0x8 common/built-in.o
 .text.menu_default_choice
                0x0000000000000000       0x20 common/built-in.o
 .text.cli_simple_parse_line
                0x0000000000000000       0x9c common/built-in.o
 .text.cli_simple_run_command
                0x0000000000000000      0x148 common/built-in.o
 .text.cli_simple_loop
                0x0000000000000000       0x90 common/built-in.o
 .text.cli_simple_run_command_list
                0x0000000000000000       0x74 common/built-in.o
 .text.spd_check
                0x0000000000000000       0x94 common/built-in.o
 .text.ddr1_spd_check
                0x0000000000000000        0xc common/built-in.o
 .text.ddr2_spd_check
                0x0000000000000000        0xc common/built-in.o
 .text.ddr3_spd_check
                0x0000000000000000       0x68 common/built-in.o
 .text.hwconfig_f
                0x0000000000000000       0x24 common/built-in.o
 .text.hwconfig_arg_f
                0x0000000000000000        0x4 common/built-in.o
 .text.serial_printf
                0x0000000000000000       0xb4 common/built-in.o
 .text.fgetc    0x0000000000000000       0x14 common/built-in.o
 .text.fprintf  0x0000000000000000       0xb8 common/built-in.o
 .text.console_announce_r
                0x0000000000000000       0x5c common/built-in.o
 .text.valloc   0x0000000000000000        0xc common/built-in.o
 .text.pvalloc  0x0000000000000000       0x10 common/built-in.o
 .text.cfree    0x0000000000000000        0x4 common/built-in.o
 .text.malloc_usable_size
                0x0000000000000000       0x44 common/built-in.o
 .text.mallopt  0x0000000000000000       0x5c common/built-in.o
 .text.memalign_simple
                0x0000000000000000       0x10 common/built-in.o
 .text.malloc_simple_info
                0x0000000000000000        0x4 common/built-in.o
 .text.genimg_get_short_name
                0x0000000000000000       0x28 common/built-in.o
 .text.genimg_get_cat_name
                0x0000000000000000       0x78 common/built-in.o
 .text.genimg_get_cat_short_name
                0x0000000000000000       0x78 common/built-in.o
 .text.genimg_get_cat_count
                0x0000000000000000       0x1c common/built-in.o
 .text.genimg_get_cat_desc
                0x0000000000000000       0x1c common/built-in.o
 .text.genimg_get_type_short_name
                0x0000000000000000       0x10 common/built-in.o
 .text.genimg_get_comp_short_name
                0x0000000000000000       0x10 common/built-in.o
 .text.genimg_get_os_short_name
                0x0000000000000000       0x10 common/built-in.o
 .text.genimg_get_arch_short_name
                0x0000000000000000       0x10 common/built-in.o
 .text.arch_fixup_fdt
                0x0000000000000000        0x8 common/built-in.o
 .text.fit_get_subimage_count
                0x0000000000000000       0x68 common/built-in.o
 .text.fit_get_timestamp
                0x0000000000000000       0x5c common/built-in.o
 .text.fit_set_timestamp
                0x0000000000000000       0x44 common/built-in.o
 .text.fit_conf_find_compat
                0x0000000000000000      0x1a4 common/built-in.o
 .text.fit_conf_get_prop_node_count
                0x0000000000000000        0x4 common/built-in.o
 .text.get_ram_size
                0x0000000000000000       0xfc common/built-in.o
 .text.get_effective_memsize
                0x0000000000000000       0x18 common/built-in.o
 .text.stdio_init
                0x0000000000000000       0x1c common/built-in.o
 .text.run_command_repeatable
                0x0000000000000000       0x20 common/built-in.o
 .text.cmd_discard_repeatable
                0x0000000000000000       0x1c common/built-in.o
 .text.cmd_process_error
                0x0000000000000000       0x40 common/built-in.o
 .rodata.__func__.9128
                0x0000000000000000       0x14 common/built-in.o
 .rodata.fdt_fixup_display.str1.1
                0x0000000000000000       0x1c common/built-in.o
 .rodata.fdt_pci_dma_ranges.str1.1
                0x0000000000000000       0x1c common/built-in.o
 .rodata.fdt_record_loadable.str1.1
                0x0000000000000000       0x2e common/built-in.o
 .rodata.fdt_setup_simplefb_node.str1.1
                0x0000000000000000       0x2c common/built-in.o
 .rodata.fdt_verify_alias_address.str1.1
                0x0000000000000000       0xcc common/built-in.o
 .rodata.mdio_register_seq.str1.1
                0x0000000000000000        0x6 common/built-in.o
 .rodata.usb_find_usb2_hub_address_port.str1.1
                0x0000000000000000       0x36 common/built-in.o
 .rodata.cli_simple_loop.str1.1
                0x0000000000000000       0x11 common/built-in.o
 .rodata.cli_simple_parse_line.str1.1
                0x0000000000000000       0x1f common/built-in.o
 .rodata.cli_simple_run_command.str1.1
                0x0000000000000000       0x16 common/built-in.o
 .rodata.spd_check.str1.1
                0x0000000000000000       0xa1 common/built-in.o
 .rodata.console_announce_r.str1.1
                0x0000000000000000        0x7 common/built-in.o
 .rodata.mallopt
                0x0000000000000000        0x4 common/built-in.o
 .rodata.genimg_get_short_name.str1.1
                0x0000000000000000        0x8 common/built-in.o
 .rodata.table_info
                0x0000000000000000       0x60 common/built-in.o
 .rodata.unknown_str.9163
                0x0000000000000000        0x9 common/built-in.o
 .rodata.fit_conf_find_compat.str1.1
                0x0000000000000000        0xb common/built-in.o
 .rodata.fit_get_timestamp.str1.1
                0x0000000000000000        0xa common/built-in.o
 .rodata.cmd_process_error.str1.1
                0x0000000000000000       0x1f common/built-in.o
 .data          0x0000000000000000        0x0 common/built-in.o
 .bss           0x0000000000000000        0x0 common/built-in.o
 .bss.lastcommand.8542
                0x0000000000000000      0x201 common/built-in.o
 .bss.msg.9164  0x0000000000000000       0x1e common/built-in.o
 .bss.save_addr
                0x0000000000000000        0x8 common/built-in.o
 .bss.save_size
                0x0000000000000000        0x8 common/built-in.o
 .text          0x0000000000000000        0x0 disk/built-in.o
 .text.is_valid_dos_buf
                0x0000000000000000       0x1c disk/built-in.o
 .text.write_mbr_partition
                0x0000000000000000       0x80 disk/built-in.o
 .text.is_valid_gpt_buf
                0x0000000000000000       0x9c disk/built-in.o
 .text.write_mbr_and_gpt_partitions
                0x0000000000000000      0x46c disk/built-in.o
 .rodata.__func__.8562
                0x0000000000000000       0x14 disk/built-in.o
 .rodata.write_mbr_partition.str1.1
                0x0000000000000000       0x2d disk/built-in.o
 .rodata.__func__.9063
                0x0000000000000000       0x1d disk/built-in.o
 .rodata.write_mbr_and_gpt_partitions.str1.1
                0x0000000000000000       0x7c disk/built-in.o
 .data          0x0000000000000000        0x0 disk/built-in.o
 .bss           0x0000000000000000        0x0 disk/built-in.o
 .text          0x0000000000000000        0x0 drivers/built-in.o
 .text._device_find_global_by_ofnode
                0x0000000000000000       0x68 drivers/built-in.o
 .text.device_get_child
                0x0000000000000000       0x5c drivers/built-in.o
 .text.device_find_child_by_seq
                0x0000000000000000       0x58 drivers/built-in.o
 .text.device_get_child_by_seq
                0x0000000000000000       0x60 drivers/built-in.o
 .text.device_find_child_by_of_offset
                0x0000000000000000       0x44 drivers/built-in.o
 .text.device_get_child_by_of_offset
                0x0000000000000000       0x40 drivers/built-in.o
 .text.device_find_global_by_ofnode
                0x0000000000000000       0x34 drivers/built-in.o
 .text.device_get_global_by_ofnode
                0x0000000000000000       0x48 drivers/built-in.o
 .text.device_find_first_inactive_child
                0x0000000000000000       0x54 drivers/built-in.o
 .text.device_find_first_child_by_uclass
                0x0000000000000000       0x4c drivers/built-in.o
 .text.device_find_child_by_name
                0x0000000000000000       0x68 drivers/built-in.o
 .text.dev_get_driver_ops
                0x0000000000000000       0x18 drivers/built-in.o
 .text.dev_get_uclass_name
                0x0000000000000000       0x1c drivers/built-in.o
 .text.device_has_children
                0x0000000000000000       0x14 drivers/built-in.o
 .text.device_set_name
                0x0000000000000000       0x44 drivers/built-in.o
 .text.device_is_compatible
                0x0000000000000000       0x20 drivers/built-in.o
 .text.of_machine_is_compatible
                0x0000000000000000       0x2c drivers/built-in.o
 .text.dev_disable_by_path
                0x0000000000000000       0x18 drivers/built-in.o
 .text.dev_enable_by_path
                0x0000000000000000       0x1c drivers/built-in.o
 .text.devfdt_get_addr_size_index
                0x0000000000000000       0x48 drivers/built-in.o
 .text.devfdt_get_addr_name
                0x0000000000000000       0x50 drivers/built-in.o
 .text.devfdt_get_addr_ptr
                0x0000000000000000        0x8 drivers/built-in.o
 .text.devfdt_remap_addr_index
                0x0000000000000000       0x20 drivers/built-in.o
 .text.devfdt_remap_addr_name
                0x0000000000000000       0x20 drivers/built-in.o
 .text.devfdt_remap_addr
                0x0000000000000000        0x8 drivers/built-in.o
 .text.devfdt_map_physmem
                0x0000000000000000       0x20 drivers/built-in.o
 .text.dm_fixup_for_gd_move
                0x0000000000000000       0x20 drivers/built-in.o
 .text.dm_set_translation_offset
                0x0000000000000000       0x28 drivers/built-in.o
 .text.dm_uninit
                0x0000000000000000       0x2c drivers/built-in.o
 .text.uclass_destroy
                0x0000000000000000       0x98 drivers/built-in.o
 .text.uclass_get_name
                0x0000000000000000       0x30 drivers/built-in.o
 .text.uclass_get_by_name
                0x0000000000000000       0x54 drivers/built-in.o
 .text.dev_get_uclass_index
                0x0000000000000000       0x58 drivers/built-in.o
 .text.uclass_find_device
                0x0000000000000000       0x78 drivers/built-in.o
 .text.uclass_find_device_by_name
                0x0000000000000000       0x98 drivers/built-in.o
 .text.uclass_find_device_by_of_offset
                0x0000000000000000       0x78 drivers/built-in.o
 .text.uclass_find_device_by_ofnode
                0x0000000000000000       0x7c drivers/built-in.o
 .text.uclass_find_device_by_phandle
                0x0000000000000000       0xb4 drivers/built-in.o
 .text.uclass_get_device_by_driver
                0x0000000000000000       0x7c drivers/built-in.o
 .text.uclass_get_device
                0x0000000000000000       0x38 drivers/built-in.o
 .text.uclass_get_device_by_name
                0x0000000000000000       0x38 drivers/built-in.o
 .text.uclass_get_device_by_of_offset
                0x0000000000000000       0x38 drivers/built-in.o
 .text.uclass_get_device_by_ofnode
                0x0000000000000000       0x38 drivers/built-in.o
 .text.uclass_get_device_by_phandle_id
                0x0000000000000000       0x90 drivers/built-in.o
 .text.uclass_get_device_by_phandle
                0x0000000000000000       0x38 drivers/built-in.o
 .text.uclass_next_device_err
                0x0000000000000000       0x34 drivers/built-in.o
 .text.list_count_items
                0x0000000000000000       0x28 drivers/built-in.o
 .text.dm_fdt_pre_reloc
                0x0000000000000000       0x78 drivers/built-in.o
 .text.simple_bus_translate
                0x0000000000000000       0x50 drivers/built-in.o
 .text.show_devices
                0x0000000000000000      0x134 drivers/built-in.o
 .text.dm_dump_all
                0x0000000000000000       0x54 drivers/built-in.o
 .text.dm_dump_uclass
                0x0000000000000000      0x120 drivers/built-in.o
 .text.ofnode_read_fmap_entry
                0x0000000000000000      0x104 drivers/built-in.o
 .text.ofnode_decode_region
                0x0000000000000000       0x5c drivers/built-in.o
 .text.ofnode_decode_memory_region
                0x0000000000000000      0x118 drivers/built-in.o
 .text.ofnode_read_s32_default
                0x0000000000000000       0x24 drivers/built-in.o
 .text.ofnode_read_u64
                0x0000000000000000       0x5c drivers/built-in.o
 .text.ofnode_read_u64_default
                0x0000000000000000       0x24 drivers/built-in.o
 .text.ofnode_read_string
                0x0000000000000000       0x60 drivers/built-in.o
 .text.ofnode_find_subnode
                0x0000000000000000       0x28 drivers/built-in.o
 .text.ofnode_get_parent
                0x0000000000000000       0x24 drivers/built-in.o
 .text.ofnode_get_by_phandle
                0x0000000000000000       0x24 drivers/built-in.o
 .text.ofnode_read_size
                0x0000000000000000       0x38 drivers/built-in.o
 .text.decode_timing_property
                0x0000000000000000       0x78 drivers/built-in.o
 .text.ofnode_read_string_index
                0x0000000000000000       0x4c drivers/built-in.o
 .text.ofnode_read_string_count
                0x0000000000000000       0x14 drivers/built-in.o
 .text.ofnode_parse_phandle_with_args
                0x0000000000000000       0x6c drivers/built-in.o
 .text.ofnode_count_phandle_with_args
                0x0000000000000000       0x24 drivers/built-in.o
 .text.ofnode_get_chosen_prop
                0x0000000000000000       0x2c drivers/built-in.o
 .text.ofnode_get_chosen_node
                0x0000000000000000       0x24 drivers/built-in.o
 .text.ofnode_decode_display_timing
                0x0000000000000000      0x2e8 drivers/built-in.o
 .text.ofnode_is_available
                0x0000000000000000       0x28 drivers/built-in.o
 .text.ofnode_get_addr_size
                0x0000000000000000       0x18 drivers/built-in.o
 .text.ofnode_read_u8_array_ptr
                0x0000000000000000       0x18 drivers/built-in.o
 .text.ofnode_get_addr_index
                0x0000000000000000       0x6c drivers/built-in.o
 .text.ofnode_get_addr
                0x0000000000000000        0x8 drivers/built-in.o
 .text.ofnode_pre_reloc
                0x0000000000000000       0x7c drivers/built-in.o
 .text.ofnode_translate_address
                0x0000000000000000       0x14 drivers/built-in.o
 .text.ofnode_device_is_compatible
                0x0000000000000000       0x2c drivers/built-in.o
 .text.ofnode_by_compatible
                0x0000000000000000       0x28 drivers/built-in.o
 .text.ofnode_by_prop_value
                0x0000000000000000       0x30 drivers/built-in.o
 .text.ofnode_write_prop
                0x0000000000000000        0x8 drivers/built-in.o
 .text.ofnode_write_string
                0x0000000000000000        0x8 drivers/built-in.o
 .text.ofnode_set_enabled
                0x0000000000000000        0x8 drivers/built-in.o
 .text._input_send_keycodes
                0x0000000000000000      0x3fc drivers/built-in.o
 .text.input_tstc
                0x0000000000000000       0x48 drivers/built-in.o
 .text.input_getc
                0x0000000000000000       0x5c drivers/built-in.o
 .text.input_send_keycodes
                0x0000000000000000        0x8 drivers/built-in.o
 .text.input_add_keycode
                0x0000000000000000       0x78 drivers/built-in.o
 .text.input_add_table
                0x0000000000000000       0x38 drivers/built-in.o
 .text.input_set_delays
                0x0000000000000000        0x8 drivers/built-in.o
 .text.input_allow_repeats
                0x0000000000000000        0x8 drivers/built-in.o
 .text.input_leds_changed
                0x0000000000000000       0x18 drivers/built-in.o
 .text.input_add_tables
                0x0000000000000000       0x70 drivers/built-in.o
 .text.input_init
                0x0000000000000000       0x34 drivers/built-in.o
 .text.input_stdio_register
                0x0000000000000000       0x58 drivers/built-in.o
 .text.create_keymap
                0x0000000000000000       0xa0 drivers/built-in.o
 .text.key_matrix_decode
                0x0000000000000000       0xe0 drivers/built-in.o
 .text.key_matrix_decode_fdt
                0x0000000000000000       0xb4 drivers/built-in.o
 .text.key_matrix_init
                0x0000000000000000       0x50 drivers/built-in.o
 .text.board_should_run_oprom
                0x0000000000000000        0x8 drivers/built-in.o
 .text.board_should_load_oprom
                0x0000000000000000        0x8 drivers/built-in.o
 .text.board_map_oprom_vendev
                0x0000000000000000        0x4 drivers/built-in.o
 .text.setup_video
                0x0000000000000000      0x118 drivers/built-in.o
 .text.dm_pci_run_vga_bios
                0x0000000000000000      0x234 drivers/built-in.o
 .text._dm_pci_bus_to_phys
                0x0000000000000000       0xb8 drivers/built-in.o
 .text.pci_last_busno
                0x0000000000000000        0x4 drivers/built-in.o
 .text.dm_pci_find_device
                0x0000000000000000       0xac drivers/built-in.o
 .text.pci_write_config8
                0x0000000000000000        0xc drivers/built-in.o
 .text.pci_bus_clrset_config32
                0x0000000000000000       0x70 drivers/built-in.o
 .text.dm_pci_clrset_config8
                0x0000000000000000       0x5c drivers/built-in.o
 .text.dm_pci_clrset_config16
                0x0000000000000000       0x5c drivers/built-in.o
 .text.dm_pci_clrset_config32
                0x0000000000000000       0x58 drivers/built-in.o
 .text.dm_pci_find_class
                0x0000000000000000       0x7c drivers/built-in.o
 .text.pci_conv_32_to_size
                0x0000000000000000       0x34 drivers/built-in.o
 .text.pci_conv_size_to_32
                0x0000000000000000       0x48 drivers/built-in.o
 .text.dm_pci_read_bar32
                0x0000000000000000       0x34 drivers/built-in.o
 .text.dm_pci_write_bar32
                0x0000000000000000        0xc drivers/built-in.o
 .text.dm_pci_bus_to_phys
                0x0000000000000000       0x84 drivers/built-in.o
 .text._dm_pci_phys_to_bus
                0x0000000000000000       0xb0 drivers/built-in.o
 .text.dm_pci_phys_to_bus
                0x0000000000000000       0x78 drivers/built-in.o
 .text.dm_pci_map_bar
                0x0000000000000000       0x3c drivers/built-in.o
 .text.dm_pci_find_next_capability
                0x0000000000000000        0xc drivers/built-in.o
 .text.dm_pci_find_next_ext_capability
                0x0000000000000000       0x94 drivers/built-in.o
 .text.dm_pci_find_ext_capability
                0x0000000000000000        0xc drivers/built-in.o
 .text.pci_hose_read_config_byte
                0x0000000000000000       0x10 drivers/built-in.o
 .text.pci_hose_read_config_word
                0x0000000000000000       0x10 drivers/built-in.o
 .text.pci_hose_read_config_dword
                0x0000000000000000       0x10 drivers/built-in.o
 .text.pci_hose_write_config_byte
                0x0000000000000000       0x10 drivers/built-in.o
 .text.pci_hose_write_config_word
                0x0000000000000000       0x10 drivers/built-in.o
 .text.pci_hose_write_config_dword
                0x0000000000000000       0x10 drivers/built-in.o
 .text.pci_skip_dev
                0x0000000000000000       0x10 drivers/built-in.o
 .text.pci_write_bar32
                0x0000000000000000        0xc drivers/built-in.o
 .text.pci_read_bar32
                0x0000000000000000       0x34 drivers/built-in.o
 .text.pci_find_device
                0x0000000000000000       0x30 drivers/built-in.o
 .text.pci_hose_find_devices
                0x0000000000000000       0xf4 drivers/built-in.o
 .text.pci_find_class
                0x0000000000000000       0xe0 drivers/built-in.o
 .text.ahci_start_ports_dm
                0x0000000000000000       0x14 drivers/built-in.o
 .text.ahci_init_dm
                0x0000000000000000       0x5c drivers/built-in.o
 .text.scsi_init
                0x0000000000000000        0x4 drivers/built-in.o
 .text.ahci_probe_scsi_pci
                0x0000000000000000       0x30 drivers/built-in.o
 .text.ata_dev_classify
                0x0000000000000000       0x54 drivers/built-in.o
 .text.ata_id_c_string
                0x0000000000000000       0x80 drivers/built-in.o
 .text.ata_dump_id
                0x0000000000000000      0x114 drivers/built-in.o
 .text.blk_get_by_device
                0x0000000000000000       0x74 drivers/built-in.o
 .text.jr_reset
                0x0000000000000000       0xe8 drivers/built-in.o
 .text.sec_reset
                0x0000000000000000       0x74 drivers/built-in.o
 .text.get_hash_type.isra.0
                0x0000000000000000       0x24 drivers/built-in.o
 .text.hw_sha_init
                0x0000000000000000       0x40 drivers/built-in.o
 .text.hw_sha_update
                0x0000000000000000       0xb8 drivers/built-in.o
 .text.hw_sha_finish
                0x0000000000000000       0xec drivers/built-in.o
 .text.inline_cnstr_jobdesc_blob_encap
                0x0000000000000000       0xb8 drivers/built-in.o
 .text.inline_cnstr_jobdesc_blob_decap
                0x0000000000000000       0xb8 drivers/built-in.o
 .text.inline_cnstr_jobdesc_pkha_rsaexp
                0x0000000000000000      0x100 drivers/built-in.o
 .text.print_ifc_regs
                0x0000000000000000       0xc4 drivers/built-in.o
 .text.init_final_memctl_regs
                0x0000000000000000       0x88 drivers/built-in.o
 .text.cpu_mmc_init
                0x0000000000000000        0x8 drivers/built-in.o
 .text.board_mmc_init
                0x0000000000000000        0x8 drivers/built-in.o
 .text.mmc_set_preinit
                0x0000000000000000        0x8 drivers/built-in.o
 .text.mmc_of_parse
                0x0000000000000000      0x27c drivers/built-in.o
 .text.mmc_get_next_devnum
                0x0000000000000000        0x8 drivers/built-in.o
 .text.mmc_unbind
                0x0000000000000000       0x34 drivers/built-in.o
 .text.rtc_to_tm
                0x0000000000000000      0x150 drivers/built-in.o
 .text.scsi_bus_reset
                0x0000000000000000       0x1c drivers/built-in.o
 .rodata.devfdt_get_addr_name.str1.1
                0x0000000000000000        0xa drivers/built-in.o
 .rodata.dm_dump_all.str1.1
                0x0000000000000000       0x73 drivers/built-in.o
 .rodata.dm_dump_uclass.str1.1
                0x0000000000000000       0x35 drivers/built-in.o
 .rodata.show_devices.str1.1
                0x0000000000000000       0x3c drivers/built-in.o
 .rodata.ofnode_decode_memory_region.str1.1
                0x0000000000000000       0x2d drivers/built-in.o
 .rodata.ofnode_read_fmap_entry.str1.1
                0x0000000000000000       0x32 drivers/built-in.o
 .rodata.ofnode_decode_display_timing.str1.1
                0x0000000000000000       0xca drivers/built-in.o
 .rodata.ofnode_get_chosen_prop.str1.1
                0x0000000000000000        0x8 drivers/built-in.o
 .rodata.ofnode_pre_reloc.str1.1
                0x0000000000000000       0x45 drivers/built-in.o
 .rodata.input_stdio_register.str1.1
                0x0000000000000000        0x6 drivers/built-in.o
 .rodata.kbd_plain_xlate
                0x0000000000000000       0x64 drivers/built-in.o
 .rodata.kbd_plain_xlate_german
                0x0000000000000000       0x84 drivers/built-in.o
 .rodata.kbd_to_ansi364
                0x0000000000000000       0x40 drivers/built-in.o
 .rodata.key_matrix_decode_fdt.str1.1
                0x0000000000000000       0x1d drivers/built-in.o
 .rodata.dm_pci_run_vga_bios.str1.1
                0x0000000000000000       0xd4 drivers/built-in.o
 .rodata.dm_pci_bus_to_phys.str1.1
                0x0000000000000000       0x30 drivers/built-in.o
 .rodata.dm_pci_phys_to_bus.str1.1
                0x0000000000000000       0x30 drivers/built-in.o
 .rodata.ata_dump_id.str1.1
                0x0000000000000000      0x2b2 drivers/built-in.o
 .rodata.print_ifc_regs.str1.1
                0x0000000000000000       0x59 drivers/built-in.o
 .rodata.mmc_of_parse.str1.1
                0x0000000000000000       0xf2 drivers/built-in.o
 .rodata.rtc_days_in_month
                0x0000000000000000        0xc drivers/built-in.o
 .data          0x0000000000000000        0x0 drivers/built-in.o
 .data.kbd_ctrl_xlate
                0x0000000000000000       0x64 drivers/built-in.o
 .data.kbd_entry
                0x0000000000000000       0xe0 drivers/built-in.o
 .data.kbd_right_alt_xlate_german
                0x0000000000000000       0x58 drivers/built-in.o
 .data.kbd_shift_xlate
                0x0000000000000000       0x64 drivers/built-in.o
 .data.kbd_shift_xlate_german
                0x0000000000000000       0x84 drivers/built-in.o
 .bss           0x0000000000000000        0x0 drivers/built-in.o
 .bss.mode_info
                0x0000000000000000      0x104 drivers/built-in.o
 .text          0x0000000000000000        0x0 drivers/ddr/fsl/built-in.o
 .text.__board_assert_mem_reset
                0x0000000000000000       0x20 drivers/ddr/fsl/built-in.o
 .text.__board_need_mem_reset
                0x0000000000000000       0x40 drivers/ddr/fsl/built-in.o
 .text.__board_deassert_mem_reset
                0x0000000000000000       0x20 drivers/ddr/fsl/built-in.o
 .text.step_to_string
                0x0000000000000000       0xc8 drivers/ddr/fsl/built-in.o
 .text.__fsl_ddr_sdram
                0x0000000000000000      0x198 drivers/ddr/fsl/built-in.o
 .text.fsl_ddr_sdram
                0x0000000000000000       0x70 drivers/ddr/fsl/built-in.o
 .text.fsl_ddr_set_intl3r
                0x0000000000000000        0x4 drivers/ddr/fsl/built-in.o
 .text.fsl_ddr_get_intl3r
                0x0000000000000000        0x8 drivers/ddr/fsl/built-in.o
 .text.fsl_use_spd
                0x0000000000000000       0x9c drivers/ddr/fsl/built-in.o
 .text.print_option_table
                0x0000000000000000       0xb4 drivers/ddr/fsl/built-in.o
 .text.fsl_ddr_parse_interactive_cmd
                0x0000000000000000      0x140 drivers/ddr/fsl/built-in.o
 .text.handle_option_table
                0x0000000000000000       0xc0 drivers/ddr/fsl/built-in.o
 .text.ddr4_spd_dump
                0x0000000000000000      0x990 drivers/ddr/fsl/built-in.o
 .text.fsl_ddr_interactive_env_var_exists
                0x0000000000000000       0x34 drivers/ddr/fsl/built-in.o
 .text.fsl_ddr_interactive
                0x0000000000000000      0xb90 drivers/ddr/fsl/built-in.o
 .text.fsl_ddr_set_memctl_regs
                0x0000000000000000      0x764 drivers/ddr/fsl/built-in.o
 .rodata.__func__.9367
                0x0000000000000000        0xf drivers/ddr/fsl/built-in.o
 .rodata.step_to_string.str1.1
                0x0000000000000000       0x1a drivers/ddr/fsl/built-in.o
 .rodata.str1.1
                0x0000000000000000      0xb64 drivers/ddr/fsl/built-in.o
 .rodata.fsl_use_spd.str1.1
                0x0000000000000000       0x10 drivers/ddr/fsl/built-in.o
 .rodata.ddr4_spd_dump
                0x0000000000000000        0x8 drivers/ddr/fsl/built-in.o
 .rodata.ddr4_spd_dump.str1.1
                0x0000000000000000     0x17b8 drivers/ddr/fsl/built-in.o
 .rodata.fsl_ddr_interactive.str1.1
                0x0000000000000000      0x85d drivers/ddr/fsl/built-in.o
 .rodata.fsl_ddr_interactive_env_var_exists.str1.1
                0x0000000000000000       0x10 drivers/ddr/fsl/built-in.o
 .rodata.fsl_ddr_parse_interactive_cmd.str1.1
                0x0000000000000000       0x10 drivers/ddr/fsl/built-in.o
 .rodata.options.9369
                0x0000000000000000      0x288 drivers/ddr/fsl/built-in.o
 .rodata.options.9379
                0x0000000000000000      0x570 drivers/ddr/fsl/built-in.o
 .rodata.options.9384
                0x0000000000000000      0x540 drivers/ddr/fsl/built-in.o
 .rodata.options.9389
                0x0000000000000000      0x210 drivers/ddr/fsl/built-in.o
 .rodata.options.9398
                0x0000000000000000      0x570 drivers/ddr/fsl/built-in.o
 .rodata.options.9404
                0x0000000000000000      0x5e8 drivers/ddr/fsl/built-in.o
 .rodata.options.9418
                0x0000000000000000      0x618 drivers/ddr/fsl/built-in.o
 .rodata.options.9427
                0x0000000000000000      0x588 drivers/ddr/fsl/built-in.o
 .rodata.options.9516
                0x0000000000000000       0x60 drivers/ddr/fsl/built-in.o
 .rodata.print_option_table.str1.1
                0x0000000000000000       0x35 drivers/ddr/fsl/built-in.o
 .rodata.__func__.9416
                0x0000000000000000       0x18 drivers/ddr/fsl/built-in.o
 .rodata.fsl_ddr_set_memctl_regs.str1.1
                0x0000000000000000       0xde drivers/ddr/fsl/built-in.o
 .data          0x0000000000000000        0x0 drivers/ddr/fsl/built-in.o
 .data.step_string_tbl
                0x0000000000000000       0x40 drivers/ddr/fsl/built-in.o
 .bss           0x0000000000000000        0x0 drivers/ddr/fsl/built-in.o
 .text          0x0000000000000000        0x0 drivers/i2c/built-in.o
 .text.i2c_init_board
                0x0000000000000000        0x4 drivers/i2c/built-in.o
 .text.i2c_early_init_f
                0x0000000000000000       0x6c drivers/i2c/built-in.o
 .text.i2c_reg_read
                0x0000000000000000       0x28 drivers/i2c/built-in.o
 .text.i2c_reg_write
                0x0000000000000000       0x28 drivers/i2c/built-in.o
 .text.i2c_get_base
                0x0000000000000000       0x18 drivers/i2c/built-in.o
 .data          0x0000000000000000        0x0 drivers/i2c/built-in.o
 .bss           0x0000000000000000        0x0 drivers/i2c/built-in.o
 .text          0x0000000000000000        0x0 drivers/mtd/built-in.o
 .text.mtd_ooblayout_ecc
                0x0000000000000000       0x80 drivers/mtd/built-in.o
 .text.mtd_ooblayout_free
                0x0000000000000000       0x80 drivers/mtd/built-in.o
 .text.mtd_ooblayout_find_region
                0x0000000000000000       0xa4 drivers/mtd/built-in.o
 .text.mtd_ooblayout_get_bytes
                0x0000000000000000       0xb0 drivers/mtd/built-in.o
 .text.mtd_ooblayout_set_bytes
                0x0000000000000000       0xb0 drivers/mtd/built-in.o
 .text.idr_remove
                0x0000000000000000       0x1c drivers/mtd/built-in.o
 .text.idr_find
                0x0000000000000000       0x20 drivers/mtd/built-in.o
 .text.idr_get_next
                0x0000000000000000       0x3c drivers/mtd/built-in.o
 .text.idr_alloc
                0x0000000000000000       0x48 drivers/mtd/built-in.o
 .text.__mtd_next_device
                0x0000000000000000       0x24 drivers/mtd/built-in.o
 .text.mtd_dev_list_updated
                0x0000000000000000       0x18 drivers/mtd/built-in.o
 .text.del_mtd_device
                0x0000000000000000       0x78 drivers/mtd/built-in.o
 .text.__get_mtd_device
                0x0000000000000000       0x40 drivers/mtd/built-in.o
 .text.get_mtd_device
                0x0000000000000000       0xa0 drivers/mtd/built-in.o
 .text.get_mtd_device_nm
                0x0000000000000000       0x64 drivers/mtd/built-in.o
 .text.__put_mtd_device
                0x0000000000000000       0x54 drivers/mtd/built-in.o
 .text.put_mtd_device
                0x0000000000000000        0x4 drivers/mtd/built-in.o
 .text.mtd_get_unmapped_area
                0x0000000000000000       0x34 drivers/mtd/built-in.o
 .text.mtd_panic_write
                0x0000000000000000       0x58 drivers/mtd/built-in.o
 .text.mtd_ooblayout_find_eccregion
                0x0000000000000000        0xc drivers/mtd/built-in.o
 .text.mtd_ooblayout_get_eccbytes
                0x0000000000000000        0xc drivers/mtd/built-in.o
 .text.mtd_ooblayout_set_eccbytes
                0x0000000000000000        0xc drivers/mtd/built-in.o
 .text.mtd_ooblayout_get_databytes
                0x0000000000000000        0xc drivers/mtd/built-in.o
 .text.mtd_ooblayout_set_databytes
                0x0000000000000000        0xc drivers/mtd/built-in.o
 .text.mtd_ooblayout_count_freebytes
                0x0000000000000000       0x58 drivers/mtd/built-in.o
 .text.mtd_ooblayout_count_eccbytes
                0x0000000000000000       0x58 drivers/mtd/built-in.o
 .text.mtd_get_fact_prot_info
                0x0000000000000000       0x20 drivers/mtd/built-in.o
 .text.mtd_read_fact_prot_reg
                0x0000000000000000       0x24 drivers/mtd/built-in.o
 .text.mtd_get_user_prot_info
                0x0000000000000000       0x20 drivers/mtd/built-in.o
 .text.mtd_read_user_prot_reg
                0x0000000000000000       0x24 drivers/mtd/built-in.o
 .text.mtd_write_user_prot_reg
                0x0000000000000000       0x58 drivers/mtd/built-in.o
 .text.mtd_lock_user_prot_reg
                0x0000000000000000       0x20 drivers/mtd/built-in.o
 .text.mtd_lock
                0x0000000000000000       0x44 drivers/mtd/built-in.o
 .text.mtd_unlock
                0x0000000000000000       0x44 drivers/mtd/built-in.o
 .text.add_mtd_device
                0x0000000000000000      0x234 drivers/mtd/built-in.o
 .text.mtd_is_locked
                0x0000000000000000       0x44 drivers/mtd/built-in.o
 .text.mtd_block_isreserved
                0x0000000000000000       0x2c drivers/mtd/built-in.o
 .text.mtd_search_alternate_name
                0x0000000000000000      0x10c drivers/mtd/built-in.o
 .text.mtd_probe_devices
                0x0000000000000000        0x8 drivers/mtd/built-in.o
 .rodata.__func__.11096
                0x0000000000000000        0xf drivers/mtd/built-in.o
 .rodata.__func__.11135
                0x0000000000000000       0x11 drivers/mtd/built-in.o
 .rodata.__put_mtd_device.str1.1
                0x0000000000000000       0x5f drivers/mtd/built-in.o
 .rodata.add_mtd_device.str1.1
                0x0000000000000000       0x28 drivers/mtd/built-in.o
 .rodata.del_mtd_device.str1.1
                0x0000000000000000       0x30 drivers/mtd/built-in.o
 .rodata.mtd_search_alternate_name.str1.1
                0x0000000000000000        0x8 drivers/mtd/built-in.o
 .data          0x0000000000000000        0x0 drivers/mtd/built-in.o
 .bss           0x0000000000000000        0x0 drivers/mtd/built-in.o
 .bss.mtd_idr   0x0000000000000000      0x408 drivers/mtd/built-in.o
 .bss.mtd_table
                0x0000000000000000      0x100 drivers/mtd/built-in.o
 .text          0x0000000000000000        0x0 drivers/mtd/nand/raw/built-in.o
 .text.nand_mtd_to_devnum
                0x0000000000000000       0x34 drivers/mtd/nand/raw/built-in.o
 .text.nand_check_ecc_caps
                0x0000000000000000      0x178 drivers/mtd/nand/raw/built-in.o
 .text.nand_match_ecc_req
                0x0000000000000000      0x1d0 drivers/mtd/nand/raw/built-in.o
 .text.nand_maximize_ecc
                0x0000000000000000      0x1a8 drivers/mtd/nand/raw/built-in.o
 .text.nand_scan
                0x0000000000000000       0x38 drivers/mtd/nand/raw/built-in.o
 .text.onfi_async_timing_mode_to_sdr_timings
                0x0000000000000000       0x24 drivers/mtd/nand/raw/built-in.o
 .rodata.__func__.11935
                0x0000000000000000       0x14 drivers/mtd/nand/raw/built-in.o
 .rodata.__func__.11972
                0x0000000000000000       0x13 drivers/mtd/nand/raw/built-in.o
 .rodata.__func__.12005
                0x0000000000000000       0x12 drivers/mtd/nand/raw/built-in.o
 .rodata.nand_check_ecc_caps.str1.1
                0x0000000000000000       0x8b drivers/mtd/nand/raw/built-in.o
 .data          0x0000000000000000        0x0 drivers/mtd/nand/raw/built-in.o
 .data.nand_manuf_ids
                0x0000000000000000       0xf0 drivers/mtd/nand/raw/built-in.o
 .bss           0x0000000000000000        0x0 drivers/mtd/nand/raw/built-in.o
 .bss.__warned.11939
                0x0000000000000000        0x1 drivers/mtd/nand/raw/built-in.o
 .bss.__warned.11975
                0x0000000000000000        0x1 drivers/mtd/nand/raw/built-in.o
 .bss.__warned.12009
                0x0000000000000000        0x1 drivers/mtd/nand/raw/built-in.o
 .text          0x0000000000000000        0x0 drivers/mtd/spi/built-in.o
 .text.spl_flash_get_sw_write_prot
                0x0000000000000000       0x1c drivers/mtd/spi/built-in.o
 .text.spi_flash_probe
                0x0000000000000000       0x2c drivers/mtd/spi/built-in.o
 .data          0x0000000000000000        0x0 drivers/mtd/spi/built-in.o
 .bss           0x0000000000000000        0x0 drivers/mtd/spi/built-in.o
 .text          0x0000000000000000        0x0 drivers/net/built-in.o
 .text.e1000_check_mng_mode
                0x0000000000000000       0x34 drivers/net/built-in.o
 .text.e1000_find_card
                0x0000000000000000       0x40 drivers/net/built-in.o
 .text.fsl_pq_mdio_reset
                0x0000000000000000       0x28 drivers/net/built-in.o
 .text.tsec_local_mdio_write
                0x0000000000000000       0x3c drivers/net/built-in.o
 .text.tsec_phy_write
                0x0000000000000000       0x20 drivers/net/built-in.o
 .text.tsec_local_mdio_read
                0x0000000000000000       0x54 drivers/net/built-in.o
 .text.tsec_phy_read
                0x0000000000000000        0x8 drivers/net/built-in.o
 .text.fsl_pq_mdio_init
                0x0000000000000000       0x80 drivers/net/built-in.o
 .rodata.fsl_pq_mdio_init.str1.1
                0x0000000000000000       0x21 drivers/net/built-in.o
 .data          0x0000000000000000        0x0 drivers/net/built-in.o
 .bss           0x0000000000000000        0x0 drivers/net/built-in.o
 .text          0x0000000000000000        0x0 drivers/net/fm/built-in.o
 .text.dtsec_enable_mac
                0x0000000000000000       0x30 drivers/net/fm/built-in.o
 .text.dtsec_disable_mac
                0x0000000000000000       0x30 drivers/net/fm/built-in.o
 .text.dtsec_set_interface_mode
                0x0000000000000000       0xd0 drivers/net/fm/built-in.o
 .text.dtsec_set_mac_addr
                0x0000000000000000       0x3c drivers/net/fm/built-in.o
 .text.dtsec_init_mac
                0x0000000000000000       0x88 drivers/net/fm/built-in.o
 .text.init_dtsec
                0x0000000000000000       0x48 drivers/net/fm/built-in.o
 .text.fm_disable_port
                0x0000000000000000       0x34 drivers/net/fm/built-in.o
 .text.fm_enable_port
                0x0000000000000000       0x48 drivers/net/fm/built-in.o
 .text.fm_info_get_phy_address
                0x0000000000000000       0x34 drivers/net/fm/built-in.o
 .text.fm_info_get_enet_if
                0x0000000000000000       0x48 drivers/net/fm/built-in.o
 .text.is_qsgmii_riser_card
                0x0000000000000000       0x84 drivers/net/fm/built-in.o
 .text.set_sgmii_phy
                0x0000000000000000       0x70 drivers/net/fm/built-in.o
 .text.tgec_enable_mac
                0x0000000000000000       0x14 drivers/net/fm/built-in.o
 .text.tgec_disable_mac
                0x0000000000000000       0x14 drivers/net/fm/built-in.o
 .text.tgec_set_interface_mode
                0x0000000000000000        0x4 drivers/net/fm/built-in.o
 .text.tgec_set_mac_addr
                0x0000000000000000       0x40 drivers/net/fm/built-in.o
 .text.tgec_init_mac
                0x0000000000000000       0x60 drivers/net/fm/built-in.o
 .text.init_tgec
                0x0000000000000000       0x48 drivers/net/fm/built-in.o
 .text.tgec_mdio_reset
                0x0000000000000000        0x8 drivers/net/fm/built-in.o
 .text.tgec_mdio_write
                0x0000000000000000       0x84 drivers/net/fm/built-in.o
 .text.tgec_mdio_read
                0x0000000000000000       0xa0 drivers/net/fm/built-in.o
 .text.fm_tgec_mdio_init
                0x0000000000000000       0x80 drivers/net/fm/built-in.o
 .text.fman_disable_port
                0x0000000000000000       0x24 drivers/net/fm/built-in.o
 .rodata.dtsec_set_interface_mode
                0x0000000000000000        0xf drivers/net/fm/built-in.o
 .rodata.fm_tgec_mdio_init.str1.1
                0x0000000000000000       0x25 drivers/net/fm/built-in.o
 .data          0x0000000000000000        0x0 drivers/net/fm/built-in.o
 .bss           0x0000000000000000        0x0 drivers/net/fm/built-in.o
 .text          0x0000000000000000        0x0 drivers/net/phy/built-in.o
 .text.phy_set_supported
                0x0000000000000000       0x5c drivers/net/phy/built-in.o
 .text.miiphy_reset
                0x0000000000000000       0x30 drivers/net/phy/built-in.o
 .text.phy_get_interface_by_name
                0x0000000000000000       0x58 drivers/net/phy/built-in.o
 .rodata.phy_interface_strings
                0x0000000000000000       0xb0 drivers/net/phy/built-in.o
 .data          0x0000000000000000        0x0 drivers/net/phy/built-in.o
 .bss           0x0000000000000000        0x0 drivers/net/phy/built-in.o
 .text          0x0000000000000000        0x0 drivers/power/built-in.o
 .text.pmic_set_output
                0x0000000000000000       0x6c drivers/power/built-in.o
 .data          0x0000000000000000        0x0 drivers/power/built-in.o
 .bss           0x0000000000000000        0x0 drivers/power/built-in.o
 .text          0x0000000000000000        0x0 drivers/power/pmic/built-in.o
 .data          0x0000000000000000        0x0 drivers/power/pmic/built-in.o
 .bss           0x0000000000000000        0x0 drivers/power/pmic/built-in.o
 .text          0x0000000000000000        0x0 drivers/serial/built-in.o
 .text.serial_reinit_all
                0x0000000000000000       0x34 drivers/serial/built-in.o
 .text.default_serial_puts
                0x0000000000000000       0x3c drivers/serial/built-in.o
 .data          0x0000000000000000        0x0 drivers/serial/built-in.o
 .bss           0x0000000000000000        0x0 drivers/serial/built-in.o
 .text          0x0000000000000000        0x0 drivers/spi/built-in.o
 .text.spi_chip_select
                0x0000000000000000       0x24 drivers/spi/built-in.o
 .text.spi_cs_info
                0x0000000000000000       0x78 drivers/spi/built-in.o
 .text.spi_cs_is_valid
                0x0000000000000000       0x44 drivers/spi/built-in.o
 .text.spi_setup_slave
                0x0000000000000000       0x30 drivers/spi/built-in.o
 .text.spi_free_slave
                0x0000000000000000       0x2c drivers/spi/built-in.o
 .data          0x0000000000000000        0x0 drivers/spi/built-in.o
 .bss           0x0000000000000000        0x0 drivers/spi/built-in.o
 .text          0x0000000000000000        0x0 drivers/usb/common/built-in.o
 .text.usb_get_maximum_speed
                0x0000000000000000       0x88 drivers/usb/common/built-in.o
 .text.fdt_fixup_usb_mode_phy_type
                0x0000000000000000      0x114 drivers/usb/common/built-in.o
 .text.fsl_fdt_fixup_erratum
                0x0000000000000000      0x140 drivers/usb/common/built-in.o
 .text.fsl_fdt_fixup_dr_usb
                0x0000000000000000      0x260 drivers/usb/common/built-in.o
 .text.has_dual_phy
                0x0000000000000000       0x18 drivers/usb/common/built-in.o
 .text.has_erratum_a005275
                0x0000000000000000       0x28 drivers/usb/common/built-in.o
 .text.has_erratum_a006261
                0x0000000000000000       0x18 drivers/usb/common/built-in.o
 .text.has_erratum_a007075
                0x0000000000000000       0x18 drivers/usb/common/built-in.o
 .text.has_erratum_a007798
                0x0000000000000000        0x8 drivers/usb/common/built-in.o
 .text.has_erratum_a007792
                0x0000000000000000       0x18 drivers/usb/common/built-in.o
 .text.has_erratum_a005697
                0x0000000000000000       0x18 drivers/usb/common/built-in.o
 .text.has_erratum_a004477
                0x0000000000000000       0x18 drivers/usb/common/built-in.o
 .rodata.speed_names
                0x0000000000000000       0x30 drivers/usb/common/built-in.o
 .rodata.usb_get_maximum_speed.str1.1
                0x0000000000000000       0x2b drivers/usb/common/built-in.o
 .rodata.compat_usb_fsl
                0x0000000000000000       0x20 drivers/usb/common/built-in.o
 .rodata.fdt_fixup_usb_mode_phy_type.str1.1
                0x0000000000000000       0x38 drivers/usb/common/built-in.o
 .rodata.fsl_fdt_fixup_dr_usb.str1.1
                0x0000000000000000       0x63 drivers/usb/common/built-in.o
 .rodata.fsl_fdt_fixup_erratum.str1.1
                0x0000000000000000       0x5f drivers/usb/common/built-in.o
 .rodata.modes.9738
                0x0000000000000000       0x18 drivers/usb/common/built-in.o
 .rodata.phys.9739
                0x0000000000000000       0x18 drivers/usb/common/built-in.o
 .rodata.has_erratum_a005275.str1.1
                0x0000000000000000       0x13 drivers/usb/common/built-in.o
 .data          0x0000000000000000        0x0 drivers/usb/common/built-in.o
 .bss           0x0000000000000000        0x0 drivers/usb/common/built-in.o
 .text          0x0000000000000000        0x0 drivers/usb/host/built-in.o
 .text.create_int_queue
                0x0000000000000000       0x3c drivers/usb/host/built-in.o
 .text.poll_int_queue
                0x0000000000000000       0x2c drivers/usb/host/built-in.o
 .text.destroy_int_queue
                0x0000000000000000       0x2c drivers/usb/host/built-in.o
 .text.usb_setup_ehci_gadget
                0x0000000000000000       0x7c drivers/usb/host/built-in.o
 .text.usb_detect_change
                0x0000000000000000       0xa8 drivers/usb/host/built-in.o
 .text.__board_usb_init
                0x0000000000000000        0x8 drivers/usb/host/built-in.o
 .data          0x0000000000000000        0x0 drivers/usb/host/built-in.o
 .bss           0x0000000000000000        0x0 drivers/usb/host/built-in.o
 .text          0x0000000000000000        0x0 env/built-in.o
 .text.env_get_location
                0x0000000000000000       0x24 env/built-in.o
 .text.env_flags_parse_varaccess_from_binflags
                0x0000000000000000       0x60 env/built-in.o
 .text.mmc_get_env_dev
                0x0000000000000000        0x8 env/built-in.o
 .rodata.env_locations
                0x0000000000000000        0x8 env/built-in.o
 .rodata.env_flags_parse_varaccess_from_binflags.str1.1
                0x0000000000000000       0x2c env/built-in.o
 .data          0x0000000000000000        0x0 env/built-in.o
 .bss           0x0000000000000000        0x0 env/built-in.o
 .text          0x0000000000000000        0x0 fs/built-in.o
 .text.fs_get_type_name
                0x0000000000000000       0x20 fs/built-in.o
 .text.fs_uuid  0x0000000000000000       0x28 fs/built-in.o
 .text.do_fs_uuid
                0x0000000000000000       0xa0 fs/built-in.o
 .text.do_rm    0x0000000000000000       0x54 fs/built-in.o
 .text.do_mkdir
                0x0000000000000000       0x5c fs/built-in.o
 .text.fat_register_device
                0x0000000000000000       0x80 fs/built-in.o
 .text.file_fat_read
                0x0000000000000000       0x2c fs/built-in.o
 .rodata.do_mkdir.str1.1
                0x0000000000000000       0x29 fs/built-in.o
 .rodata.fat_register_device.str1.1
                0x0000000000000000       0x2b fs/built-in.o
 .data          0x0000000000000000        0x0 fs/built-in.o
 .bss           0x0000000000000000        0x0 fs/built-in.o
 .bss.ext4fs_symlinknest
                0x0000000000000000        0x4 fs/built-in.o
 .bss.g_parent_inode
                0x0000000000000000        0x8 fs/built-in.o
 .text          0x0000000000000000        0x0 lib/built-in.o
 .text.efi_serialize_load_option
                0x0000000000000000       0xdc lib/built-in.o
 .text.indent_string
                0x0000000000000000       0x40 lib/built-in.o
 .text.__efi_nesting
                0x0000000000000000        0xc lib/built-in.o
 .text.__efi_nesting_inc
                0x0000000000000000       0x14 lib/built-in.o
 .text.__efi_nesting_dec
                0x0000000000000000       0x14 lib/built-in.o
 .text.efi_dp_from_dev
                0x0000000000000000       0x50 lib/built-in.o
 .text.efi_hii_packagelist_exists
                0x0000000000000000       0x38 lib/built-in.o
 .text.efi_hii_package_len
                0x0000000000000000       0x18 lib/built-in.o
 .text.get_package_list_handle
                0x0000000000000000       0x7c lib/built-in.o
 .text.unregister_package_notify
                0x0000000000000000       0x20 lib/built-in.o
 .text.register_package_notify
                0x0000000000000000       0x64 lib/built-in.o
 .text.export_package_lists
                0x0000000000000000       0x48 lib/built-in.o
 .text.list_package_lists
                0x0000000000000000      0x120 lib/built-in.o
 .text.find_keyboard_layouts
                0x0000000000000000       0xdc lib/built-in.o
 .text.get_keyboard_layout
                0x0000000000000000       0xe4 lib/built-in.o
 .text.remove_guid_package
                0x0000000000000000       0x40 lib/built-in.o
 .text.free_keyboard_layouts
                0x0000000000000000       0x50 lib/built-in.o
 .text.remove_keyboard_package
                0x0000000000000000       0x4c lib/built-in.o
 .text.add_packages
                0x0000000000000000      0x39c lib/built-in.o
 .text.language_match
                0x0000000000000000       0x60 lib/built-in.o
 .text.get_secondary_languages
                0x0000000000000000       0xa0 lib/built-in.o
 .text.get_string
                0x0000000000000000       0xf0 lib/built-in.o
 .text.get_languages
                0x0000000000000000      0x10c lib/built-in.o
 .text.set_string
                0x0000000000000000      0x140 lib/built-in.o
 .text.new_string
                0x0000000000000000      0x130 lib/built-in.o
 .text.remove_strings_package
                0x0000000000000000       0x7c lib/built-in.o
 .text.free_packagelist
                0x0000000000000000       0x44 lib/built-in.o
 .text.remove_package_list
                0x0000000000000000       0x50 lib/built-in.o
 .text.new_package_list
                0x0000000000000000       0xd4 lib/built-in.o
 .text.set_keyboard_layout
                0x0000000000000000       0x20 lib/built-in.o
 .text.update_package_list
                0x0000000000000000      0x114 lib/built-in.o
 .text.form_callback
                0x0000000000000000       0x1c lib/built-in.o
 .text.get_alt_config
                0x0000000000000000       0x20 lib/built-in.o
 .text.config_to_block
                0x0000000000000000       0x20 lib/built-in.o
 .text.block_to_config
                0x0000000000000000       0x20 lib/built-in.o
 .text.route_config
                0x0000000000000000       0x20 lib/built-in.o
 .text.export_config
                0x0000000000000000       0x20 lib/built-in.o
 .text.extract_config
                0x0000000000000000       0x20 lib/built-in.o
 .text.extract_config_access
                0x0000000000000000       0x20 lib/built-in.o
 .text.route_config_access
                0x0000000000000000       0x20 lib/built-in.o
 .text.efi_print_image_infos
                0x0000000000000000      0x100 lib/built-in.o
 .text.invalidate_icache_all
                0x0000000000000000        0x4 lib/built-in.o
 .text.efi_add_known_memory
                0x0000000000000000       0xe0 lib/built-in.o
 .text.efi_reset_system_init
                0x0000000000000000        0x8 lib/built-in.o
 .text.LzmaDec_InitDicAndState
                0x0000000000000000       0x28 lib/built-in.o
 .text.LzmaDec_DecodeToBuf
                0x0000000000000000      0x118 lib/built-in.o
 .text.LzmaDec_Free
                0x0000000000000000       0x38 lib/built-in.o
 .text.LzmaDec_Allocate
                0x0000000000000000       0xb4 lib/built-in.o
 .text.fdt_nop_property
                0x0000000000000000       0x48 lib/built-in.o
 .text.fdt_nop_node
                0x0000000000000000       0x68 lib/built-in.o
 .text.fdt_sw_check_header_
                0x0000000000000000       0x1c lib/built-in.o
 .text.fdt_grab_space_
                0x0000000000000000       0x58 lib/built-in.o
 .text.fdt_create
                0x0000000000000000       0x70 lib/built-in.o
 .text.fdt_resize
                0x0000000000000000       0xe0 lib/built-in.o
 .text.fdt_add_reservemap_entry
                0x0000000000000000       0x74 lib/built-in.o
 .text.fdt_finish_reservemap
                0x0000000000000000        0xc lib/built-in.o
 .text.fdt_begin_node
                0x0000000000000000       0x84 lib/built-in.o
 .text.fdt_end_node
                0x0000000000000000       0x44 lib/built-in.o
 .text.fdt_property_placeholder
                0x0000000000000000      0x124 lib/built-in.o
 .text.fdt_property
                0x0000000000000000       0x50 lib/built-in.o
 .text.fdt_finish
                0x0000000000000000      0x10c lib/built-in.o
 .text.fdt_set_name
                0x0000000000000000       0xac lib/built-in.o
 .text.fdt_pack
                0x0000000000000000       0x6c lib/built-in.o
 .text.fdt_create_empty_tree
                0x0000000000000000       0x78 lib/built-in.o
 .text.fdt_get_max_phandle
                0x0000000000000000       0x80 lib/built-in.o
 .text.fdt_get_alias
                0x0000000000000000       0x34 lib/built-in.o
 .text.fdt_node_offset_by_phandle
                0x0000000000000000       0x84 lib/built-in.o
 .text.fdt_add_region
                0x0000000000000000       0x78 lib/built-in.o
 .text.fdt_find_regions
                0x0000000000000000      0x360 lib/built-in.o
 .text.fdt_add_alias_regions
                0x0000000000000000      0x1b0 lib/built-in.o
 .text.fdt_next_region
                0x0000000000000000      0x4d8 lib/built-in.o
 .text.fdt_first_region
                0x0000000000000000       0x30 lib/built-in.o
 .text.u16_strnlen
                0x0000000000000000       0x24 lib/built-in.o
 .text.u16_strcpy
                0x0000000000000000       0x20 lib/built-in.o
 .text.u16_strdup
                0x0000000000000000       0x50 lib/built-in.o
 .text.crc7     0x0000000000000000       0x30 lib/built-in.o
 .text.crc8     0x0000000000000000       0x48 lib/built-in.o
 .text.fdtdec_get_uint
                0x0000000000000000       0x40 lib/built-in.o
 .text.ldiv     0x0000000000000000       0x2c lib/built-in.o
 .text.byteReverse
                0x0000000000000000        0x4 lib/built-in.o
 .text.md5      0x0000000000000000       0x64 lib/built-in.o
 .text.rc4_encode
                0x0000000000000000       0xdc lib/built-in.o
 .text.sha1_csum
                0x0000000000000000       0x48 lib/built-in.o
 .text.sha1_hmac
                0x0000000000000000      0x14c lib/built-in.o
 .text.sha1_self_test
                0x0000000000000000        0x8 lib/built-in.o
 .text.inflateInit_
                0x0000000000000000       0x10 lib/built-in.o
 .text.fdtdec_get_compatible
                0x0000000000000000       0x10 lib/built-in.o
 .text.fdtdec_get_pci_addr
                0x0000000000000000       0xac lib/built-in.o
 .text.fdtdec_get_pci_vendev
                0x0000000000000000      0x104 lib/built-in.o
 .text.fdtdec_get_pci_bar32
                0x0000000000000000       0x44 lib/built-in.o
 .text.fdtdec_get_uint64
                0x0000000000000000       0x40 lib/built-in.o
 .text.get_next_memory_node
                0x0000000000000000       0x68 lib/built-in.o
 .text.fdtdec_lookup
                0x0000000000000000       0x68 lib/built-in.o
 .text.fdtdec_next_compatible
                0x0000000000000000       0x10 lib/built-in.o
 .text.fdtdec_next_compatible_subnode
                0x0000000000000000       0x78 lib/built-in.o
 .text.fdtdec_next_alias
                0x0000000000000000       0xac lib/built-in.o
 .text.fdtdec_add_aliases_for_id
                0x0000000000000000      0x244 lib/built-in.o
 .text.fdtdec_find_aliases_for_id
                0x0000000000000000       0x60 lib/built-in.o
 .text.fdtdec_get_alias_highest_id
                0x0000000000000000       0xd4 lib/built-in.o
 .text.fdtdec_get_chosen_prop
                0x0000000000000000       0x44 lib/built-in.o
 .text.fdtdec_get_chosen_node
                0x0000000000000000       0x3c lib/built-in.o
 .text.fdtdec_check_fdt
                0x0000000000000000       0x18 lib/built-in.o
 .text.fdtdec_lookup_phandle
                0x0000000000000000       0x44 lib/built-in.o
 .text.decode_timing_property
                0x0000000000000000       0x8c lib/built-in.o
 .text.fdtdec_get_int_array_count
                0x0000000000000000       0x68 lib/built-in.o
 .text.fdtdec_locate_array
                0x0000000000000000       0x28 lib/built-in.o
 .text.fdtdec_parse_phandle_with_args
                0x0000000000000000      0x154 lib/built-in.o
 .text.fdtdec_get_child_count
                0x0000000000000000       0x40 lib/built-in.o
 .text.fdtdec_get_byte_array
                0x0000000000000000       0x48 lib/built-in.o
 .text.fdtdec_locate_byte_array
                0x0000000000000000       0x24 lib/built-in.o
 .text.fdtdec_get_config_bool
                0x0000000000000000       0x54 lib/built-in.o
 .text.fdtdec_get_addr_size_fixed
                0x0000000000000000       0xc4 lib/built-in.o
 .text.fdtdec_get_addr_size_auto_parent
                0x0000000000000000       0xa8 lib/built-in.o
 .text.fdtdec_get_addr_size_auto_noparent
                0x0000000000000000       0x7c lib/built-in.o
 .text.fdtdec_get_addr_size
                0x0000000000000000       0x20 lib/built-in.o
 .text.fdtdec_get_addr
                0x0000000000000000        0x8 lib/built-in.o
 .text.fdtdec_decode_display_timing
                0x0000000000000000      0x304 lib/built-in.o
 .text.fdtdec_setup_mem_size_base
                0x0000000000000000       0x60 lib/built-in.o
 .text.fdtdec_setup_memory_banksize
                0x0000000000000000       0xf8 lib/built-in.o
 .text.fdtdec_decode_ram_size
                0x0000000000000000      0x270 lib/built-in.o
 .text.print_freq
                0x0000000000000000      0x12c lib/built-in.o
 .text.iter_div_u64_rem
                0x0000000000000000       0x28 lib/built-in.o
 .text.copy_from_user
                0x0000000000000000       0x18 lib/built-in.o
 .text.get_mem  0x0000000000000000       0x2c lib/built-in.o
 .text.kmem_cache_alloc
                0x0000000000000000       0x14 lib/built-in.o
 .text.lmb_init
                0x0000000000000000        0xc lib/built-in.o
 .text.lmb_is_reserved
                0x0000000000000000       0x4c lib/built-in.o
 .text.arch_lmb_reserve
                0x0000000000000000        0x4 lib/built-in.o
 .text.membuff_purge
                0x0000000000000000        0xc lib/built-in.o
 .text.membuff_putraw
                0x0000000000000000       0xa8 lib/built-in.o
 .text.membuff_putbyte
                0x0000000000000000       0x3c lib/built-in.o
 .text.membuff_getraw
                0x0000000000000000       0x84 lib/built-in.o
 .text.membuff_getbyte
                0x0000000000000000       0x3c lib/built-in.o
 .text.membuff_peekbyte
                0x0000000000000000       0x3c lib/built-in.o
 .text.membuff_get
                0x0000000000000000       0x9c lib/built-in.o
 .text.membuff_put
                0x0000000000000000       0x88 lib/built-in.o
 .text.membuff_isempty
                0x0000000000000000       0x10 lib/built-in.o
 .text.membuff_avail
                0x0000000000000000       0x54 lib/built-in.o
 .text.membuff_size
                0x0000000000000000       0x10 lib/built-in.o
 .text.membuff_makecontig
                0x0000000000000000       0xa4 lib/built-in.o
 .text.membuff_free
                0x0000000000000000       0x3c lib/built-in.o
 .text.membuff_readline
                0x0000000000000000       0xa8 lib/built-in.o
 .text.membuff_extend_by
                0x0000000000000000       0xe0 lib/built-in.o
 .text.membuff_init
                0x0000000000000000       0x10 lib/built-in.o
 .text.membuff_new
                0x0000000000000000       0x48 lib/built-in.o
 .text.membuff_uninit
                0x0000000000000000        0xc lib/built-in.o
 .text.membuff_dispose
                0x0000000000000000       0x28 lib/built-in.o
 .text.strchrnul
                0x0000000000000000       0x20 lib/built-in.o
 .text.strcspn  0x0000000000000000       0x38 lib/built-in.o
 .text.strspn   0x0000000000000000       0x38 lib/built-in.o
 .text.strtok   0x0000000000000000       0x7c lib/built-in.o
 .text.strswab  0x0000000000000000       0x3c lib/built-in.o
 .text.strlcpy  0x0000000000000000       0x50 lib/built-in.o
 .text.memscan  0x0000000000000000       0x24 lib/built-in.o
 .text.memchr_inv
                0x0000000000000000      0x100 lib/built-in.o
 .text.table_compute_checksum
                0x0000000000000000       0x2c lib/built-in.o
 .text.get_ticks
                0x0000000000000000       0x44 lib/built-in.o
 .text.timer_init
                0x0000000000000000        0x8 lib/built-in.o
 .text.print_hex_dump_bytes
                0x0000000000000000       0x18 lib/built-in.o
 .text.srand    0x0000000000000000        0xc lib/built-in.o
 .text.panic_str
                0x0000000000000000       0x10 lib/built-in.o
 .text.__assert_fail
                0x0000000000000000       0x18 lib/built-in.o
 .text.vsnprintf
                0x0000000000000000       0x50 lib/built-in.o
 .text.scnprintf
                0x0000000000000000       0x74 lib/built-in.o
 .text.print_grouped_ull
                0x0000000000000000       0x9c lib/built-in.o
 .rodata.efi_guid_event_group_memory_map_change
                0x0000000000000000       0x10 lib/built-in.o
 .rodata.efi_guid_event_group_ready_to_boot
                0x0000000000000000       0x10 lib/built-in.o
 .rodata.efi_guid_event_group_virtual_address_change
                0x0000000000000000       0x10 lib/built-in.o
 .rodata.indent_string.str1.1
                0x0000000000000000       0x15 lib/built-in.o
 .rodata.list_package_lists
                0x0000000000000000        0xb lib/built-in.o
 .rodata.efi_guid_hii_database_protocol
                0x0000000000000000       0x10 lib/built-in.o
 .rodata.efi_guid_hii_string_protocol
                0x0000000000000000       0x10 lib/built-in.o
 .rodata.efi_hii_database
                0x0000000000000000       0x58 lib/built-in.o
 .rodata.efi_hii_string
                0x0000000000000000       0x28 lib/built-in.o
 .rodata.efi_guid_hii_config_access_protocol
                0x0000000000000000       0x10 lib/built-in.o
 .rodata.efi_guid_hii_config_routing_protocol
                0x0000000000000000       0x10 lib/built-in.o
 .rodata.efi_hii_config_access
                0x0000000000000000       0x18 lib/built-in.o
 .rodata.efi_hii_config_routing
                0x0000000000000000       0x30 lib/built-in.o
 .rodata.efi_print_image_infos.str1.1
                0x0000000000000000       0x2b lib/built-in.o
 .rodata.efi_u_boot_guid
                0x0000000000000000       0x10 lib/built-in.o
 .rodata.fdt_create_empty_tree.str1.1
                0x0000000000000000        0x1 lib/built-in.o
 .rodata.fdt_find_regions
                0x0000000000000000       0x12 lib/built-in.o
 .rodata.fdt_next_region
                0x0000000000000000       0x12 lib/built-in.o
 .rodata.fdt_add_alias_regions.str1.1
                0x0000000000000000        0x8 lib/built-in.o
 .rodata.crc7_syndrome_table
                0x0000000000000000      0x100 lib/built-in.o
 .rodata.sha1_der_prefix
                0x0000000000000000        0xf lib/built-in.o
 .rodata.sha256_der_prefix
                0x0000000000000000       0x13 lib/built-in.o
 .rodata.z_errmsg
                0x0000000000000000       0x50 lib/built-in.o
 .rodata.compat_names
                0x0000000000000000      0x118 lib/built-in.o
 .rodata.fdtdec_decode_display_timing.str1.1
                0x0000000000000000       0xca lib/built-in.o
 .rodata.fdtdec_decode_ram_size.str1.1
                0x0000000000000000       0x21 lib/built-in.o
 .rodata.fdtdec_get_chosen_prop.str1.1
                0x0000000000000000        0x8 lib/built-in.o
 .rodata.fdtdec_get_pci_vendev.str1.1
                0x0000000000000000       0x1c lib/built-in.o
 .rodata.fdtdec_next_alias.str1.1
                0x0000000000000000        0x7 lib/built-in.o
 .rodata.fdtdec_setup_mem_size_base.str1.1
                0x0000000000000000        0xc lib/built-in.o
 .rodata.get_next_memory_node.str1.1
                0x0000000000000000       0x13 lib/built-in.o
 .rodata.names.8616
                0x0000000000000000        0x3 lib/built-in.o
 .rodata.hex_asc_upper
                0x0000000000000000       0x11 lib/built-in.o
 .rodata.__assert_fail.str1.1
                0x0000000000000000       0x22 lib/built-in.o
 .rodata.print_grouped_ull.str1.1
                0x0000000000000000        0xb lib/built-in.o
 .data          0x0000000000000000        0x0 lib/built-in.o
 .data.efi_keyboard_layout_list
                0x0000000000000000       0x10 lib/built-in.o
 .data.efi_package_lists
                0x0000000000000000       0x10 lib/built-in.o
 .data.cur      0x0000000000000000        0x4 lib/built-in.o
 .data.current  0x0000000000000000        0x8 lib/built-in.o
 .bss           0x0000000000000000        0x0 lib/built-in.o
 .bss.nesting_level
                0x0000000000000000        0x4 lib/built-in.o
 .bss.___strtok
                0x0000000000000000        0x8 lib/built-in.o
 .text          0x0000000000000000        0x0 net/built-in.o
 .text.add_ip_checksums
                0x0000000000000000       0x40 net/built-in.o
 .text.eth_unregister
                0x0000000000000000       0x94 net/built-in.o
 .text.eth_mcast_join
                0x0000000000000000       0x60 net/built-in.o
 .text.eth_is_active
                0x0000000000000000       0x1c net/built-in.o
 .text.net_get_udp_handler
                0x0000000000000000        0xc net/built-in.o
 .text.net_set_arp_handler
                0x0000000000000000       0x1c net/built-in.o
 .text.random_port
                0x0000000000000000       0x20 net/built-in.o
 .text.vlan_to_string
                0x0000000000000000       0x44 net/built-in.o
 .text.env_get_vlan
                0x0000000000000000       0x14 net/built-in.o
 .rodata.vlan_to_string.str1.1
                0x0000000000000000        0x8 net/built-in.o
 .data          0x0000000000000000        0x0 net/built-in.o
 .data.tftp_timeout_ms
                0x0000000000000000        0x8 net/built-in.o
 .bss           0x0000000000000000        0x0 net/built-in.o
 .bss.net_busy_flag
                0x0000000000000000        0x4 net/built-in.o

Memory Configuration

Name             Origin             Length             Attributes
*default*        0x0000000000000000 0xffffffffffffffff

Linker script and memory map

Address of section .text set to 0x82000000
                0x0000000000000000                . = 0x0
                0x0000000000000000                . = ALIGN (0x8)

.text           0x0000000082000000      0x218
 *(.__image_copy_start)
 .__image_copy_start
                0x0000000082000000        0x0 arch/arm/lib/built-in.o
                0x0000000082000000                __image_copy_start
 arch/arm/cpu/armv8/start.o(.text*)
 .text          0x0000000082000000      0x218 arch/arm/cpu/armv8/start.o
                0x0000000082000000                _start
                0x0000000082000008                _TEXT_BASE
                0x0000000082000010                _end_ofs
                0x0000000082000018                _bss_start_ofs
                0x0000000082000020                _bss_end_ofs
                0x000000008200002c                save_boot_params_ret
                0x00000000820000ec                apply_core_errata
                0x00000000820001b4                c_runtime_cpu_setup
                0x00000000820001ec                save_boot_params

.efi_runtime    0x0000000082000218      0x930
                0x0000000082000218                __efi_runtime_start = .
 *(.text.efi_runtime*)
 .text.efi_runtime
                0x0000000082000218       0x64 arch/arm/cpu/armv8/built-in.o
                0x0000000082000218                reset_cpu
                0x0000000082000248                efi_reset_system
 .text.efi_runtime
                0x000000008200027c      0x16c lib/built-in.o
                0x0000000082000280                efi_get_time
                0x00000000820002a4                efi_update_capsule
                0x00000000820002ac                efi_query_capsule_caps
                0x00000000820002b4                efi_query_variable_info
                0x00000000820002bc                efi_update_table_header_crc32
                0x00000000820002f0                crc32_no_comp
                0x00000000820003cc                crc32
 .text.efi_runtime_relocate
                0x00000000820003e8      0x12c lib/built-in.o
                0x00000000820003e8                efi_runtime_relocate
 *(.rodata.efi_runtime*)
 .rodata.efi_runtime.str1.1
                0x0000000082000514       0x11 arch/arm/cpu/armv8/built-in.o
 *fill*         0x0000000082000525        0x3 
 .rodata.efi_runtime_detach_list
                0x0000000082000528       0xa0 lib/built-in.o
 .rodata.efi_runtime_relocate.str1.1
                0x00000000820005c8       0x4e lib/built-in.o
 *(.data.efi_runtime*)
 *fill*         0x0000000082000616        0x2 
 .data.efi_runtime
                0x0000000082000618        0x8 arch/arm/cpu/armv8/built-in.o
                0x0000000082000618                rstcr
 .data.efi_runtime
                0x0000000082000620      0x518 lib/built-in.o
                0x0000000082000620                systab
                0x00000000820006b0                efi_runtime_services
 .data.efi_runtime_mmio
                0x0000000082000b38       0x10 lib/built-in.o
                0x0000000082000b38                efi_runtime_mmio
                0x0000000082000b48                __efi_runtime_stop = .

.text_rest      0x0000000082001000    0x742c4
 *(.text*)
 .text          0x0000000082001000      0x910 arch/arm/cpu/armv8/built-in.o
                0x0000000082001000                vectors
                0x0000000082001390                _sec_firmware_entry
                0x00000000820013b8                _sec_firmware_support_psci_version
                0x00000000820013d0                armv8_el2_to_aarch32
                0x00000000820013f0                get_gic_offset
                0x00000000820013fc                smp_kick_all_cpus
                0x0000000082001410                lowlevel_init
                0x0000000082001514                fsl_ocram_init
                0x0000000082001528                fsl_clear_ocram
                0x0000000082001548                fsl_ocram_clear_ecc_err
                0x00000000820015a0                __spin_table
                0x00000000820015a0                secondary_boot_code
                0x00000000820016a0                secondary_boot_func
                0x0000000082001730                secondary_switch_to_el2
                0x00000000820017b0                secondary_switch_to_el1
                0x0000000082001900                __real_cntfrq
                0x0000000082001908                __secondary_boot_code_size
 .text.cleanup_before_linux
                0x0000000082001910       0x28 arch/arm/cpu/armv8/built-in.o
                0x0000000082001910                cleanup_before_linux
 .text.get_tbclk
                0x0000000082001938        0x8 arch/arm/cpu/armv8/built-in.o
                0x0000000082001938                get_tbclk
 .text.get_ticks
                0x0000000082001940       0x10 arch/arm/cpu/armv8/built-in.o
                0x0000000082001940                get_ticks
 .text.usec2ticks
                0x0000000082001950       0x44 arch/arm/cpu/armv8/built-in.o
                0x0000000082001950                usec2ticks
 .text.count_required_pts
                0x0000000082001994       0xf8 arch/arm/cpu/armv8/built-in.o
 .text.create_table
                0x0000000082001a8c       0x70 arch/arm/cpu/armv8/built-in.o
 .text.split_block
                0x0000000082001afc       0x9c arch/arm/cpu/armv8/built-in.o
 .text.get_tcr  0x0000000082001b98       0xe4 arch/arm/cpu/armv8/built-in.o
                0x0000000082001b98                get_tcr
 .text.find_pte
                0x0000000082001c7c       0x9c arch/arm/cpu/armv8/built-in.o
 .text.get_page_table_size
                0x0000000082001d18       0x50 arch/arm/cpu/armv8/built-in.o
                0x0000000082001d60                get_page_table_size
 .text.setup_pgtables
                0x0000000082001d68      0x178 arch/arm/cpu/armv8/built-in.o
                0x0000000082001d68                setup_pgtables
 .text.mmu_setup
                0x0000000082001ee0      0x354 arch/arm/cpu/armv8/built-in.o
                0x000000008200201c                mmu_setup
 .text.invalidate_dcache_all
                0x0000000082002234       0x14 arch/arm/cpu/armv8/built-in.o
                0x0000000082002234                invalidate_dcache_all
 .text.flush_dcache_all
                0x0000000082002248       0x14 arch/arm/cpu/armv8/built-in.o
                0x0000000082002248                flush_dcache_all
 .text.invalidate_dcache_range
                0x000000008200225c        0x4 arch/arm/cpu/armv8/built-in.o
                0x000000008200225c                invalidate_dcache_range
 .text.flush_dcache_range
                0x0000000082002260        0x4 arch/arm/cpu/armv8/built-in.o
                0x0000000082002260                flush_dcache_range
 .text.dcache_enable
                0x0000000082002264      0x110 arch/arm/cpu/armv8/built-in.o
                0x0000000082002264                dcache_enable
 .text.dcache_disable
                0x0000000082002374       0x84 arch/arm/cpu/armv8/built-in.o
                0x0000000082002374                dcache_disable
 .text.dcache_status
                0x00000000820023f8       0x34 arch/arm/cpu/armv8/built-in.o
                0x00000000820023f8                dcache_status
 .text.icache_disable
                0x000000008200242c       0x64 arch/arm/cpu/armv8/built-in.o
                0x000000008200242c                icache_disable
 .text.icache_status
                0x0000000082002490       0x34 arch/arm/cpu/armv8/built-in.o
                0x0000000082002490                icache_status
 .text.invalidate_icache_all
                0x00000000820024c4       0x14 arch/arm/cpu/armv8/built-in.o
                0x00000000820024c4                invalidate_icache_all
 .text.icache_enable
                0x00000000820024d8       0x74 arch/arm/cpu/armv8/built-in.o
                0x00000000820024d8                icache_enable
 .text.enable_caches
                0x000000008200254c       0x30 arch/arm/cpu/armv8/built-in.o
                0x0000000082002560                enable_caches
 .text.entry_non_secure
                0x000000008200257c       0x28 arch/arm/cpu/armv8/built-in.o
 .text.switch_to_non_secure_mode
                0x00000000820025a4       0x54 arch/arm/cpu/armv8/built-in.o
                0x00000000820025a4                switch_to_non_secure_mode
 .text.__asm_dcache_level
                0x00000000820025f8       0x64 arch/arm/cpu/armv8/built-in.o
                0x00000000820025f8                __asm_dcache_level
 .text.__asm_dcache_all
                0x000000008200265c       0x60 arch/arm/cpu/armv8/built-in.o
                0x000000008200265c                __asm_dcache_all
 .text.__asm_flush_dcache_all
                0x00000000820026bc        0x8 arch/arm/cpu/armv8/built-in.o
                0x00000000820026bc                __asm_flush_dcache_all
 .text.__asm_invalidate_dcache_all
                0x00000000820026c4        0x8 arch/arm/cpu/armv8/built-in.o
                0x00000000820026c4                __asm_invalidate_dcache_all
 .text.__asm_flush_dcache_range
                0x00000000820026cc       0x34 arch/arm/cpu/armv8/built-in.o
                0x00000000820026cc                __asm_flush_dcache_range
 .text.__asm_invalidate_dcache_range
                0x0000000082002700       0x30 arch/arm/cpu/armv8/built-in.o
                0x0000000082002700                __asm_invalidate_dcache_range
 .text.__asm_invalidate_icache_all
                0x0000000082002730        0xc arch/arm/cpu/armv8/built-in.o
                0x0000000082002730                __asm_invalidate_icache_all
 .text.__asm_invalidate_l3_dcache
                0x000000008200273c        0x8 arch/arm/cpu/armv8/built-in.o
                0x000000008200273c                __asm_invalidate_l3_dcache
 .text.__asm_flush_l3_dcache
                0x0000000082002744        0x8 arch/arm/cpu/armv8/built-in.o
                0x0000000082002744                __asm_flush_l3_dcache
 .text.__asm_invalidate_l3_icache
                0x000000008200274c        0x8 arch/arm/cpu/armv8/built-in.o
                0x000000008200274c                __asm_invalidate_l3_icache
 .text.__asm_invalidate_tlb_all
                0x0000000082002754       0x4c arch/arm/cpu/armv8/built-in.o
                0x0000000082002754                __asm_invalidate_tlb_all
 .text.armv8_switch_to_el2
                0x00000000820027a0       0xb8 arch/arm/cpu/armv8/built-in.o
                0x00000000820027a0                armv8_switch_to_el2
 .text.smc_call
                0x0000000082002858       0x44 arch/arm/cpu/armv8/built-in.o
                0x0000000082002858                smc_call
 .text.psci_update_dt
                0x000000008200289c       0x34 arch/arm/cpu/armv8/built-in.o
                0x000000008200289c                psci_update_dt
 .text.sec_firmware_support_psci_version
                0x00000000820028d0       0x1c arch/arm/cpu/armv8/built-in.o
                0x00000000820028d0                sec_firmware_support_psci_version
 .text.sec_firmware_get_random
                0x00000000820028ec       0x84 arch/arm/cpu/armv8/built-in.o
                0x00000000820028ec                sec_firmware_get_random
 .text.fdt_fixup_kaslr
                0x0000000082002970       0xb4 arch/arm/cpu/armv8/built-in.o
                0x0000000082002970                fdt_fixup_kaslr
 .text.config_core_prefetch
                0x0000000082002a24       0xc4 arch/arm/cpu/armv8/built-in.o
 .text.cpu_name
                0x0000000082002ae8       0xa8 arch/arm/cpu/armv8/built-in.o
                0x0000000082002ae8                cpu_name
 .text.arch_cpu_init
                0x0000000082002b90      0x1cc arch/arm/cpu/armv8/built-in.o
                0x0000000082002b90                arch_cpu_init
 .text.__get_boot_src
                0x0000000082002d5c       0x6c arch/arm/cpu/armv8/built-in.o
                0x0000000082002d5c                __get_boot_src
 .text.get_boot_src
                0x0000000082002dc8       0x90 arch/arm/cpu/armv8/built-in.o
                0x0000000082002dc8                get_boot_src
 .text.mmc_get_env_dev
                0x0000000082002e58       0x1c arch/arm/cpu/armv8/built-in.o
                0x0000000082002e58                mmc_get_env_dev
 .text.env_get_location
                0x0000000082002e74       0x4c arch/arm/cpu/armv8/built-in.o
                0x0000000082002e74                env_get_location
 .text.initiator_type
                0x0000000082002ec0       0x28 arch/arm/cpu/armv8/built-in.o
                0x0000000082002ec0                initiator_type
 .text.cpu_pos_mask
                0x0000000082002ee8       0x74 arch/arm/cpu/armv8/built-in.o
                0x0000000082002ee8                cpu_pos_mask
 .text.cpu_mask
                0x0000000082002f5c       0x74 arch/arm/cpu/armv8/built-in.o
                0x0000000082002f5c                cpu_mask
 .text.cpu_numcores
                0x0000000082002fd0       0x5c arch/arm/cpu/armv8/built-in.o
                0x0000000082002fd0                cpu_numcores
 .text.fsl_qoriq_core_to_cluster
                0x000000008200302c       0x6c arch/arm/cpu/armv8/built-in.o
                0x000000008200302c                fsl_qoriq_core_to_cluster
 .text.fsl_qoriq_core_to_type
                0x0000000082003098       0x68 arch/arm/cpu/armv8/built-in.o
                0x0000000082003098                fsl_qoriq_core_to_type
 .text.get_svr  0x0000000082003100       0x10 arch/arm/cpu/armv8/built-in.o
                0x0000000082003100                get_svr
 .text.print_cpuinfo
                0x0000000082003110      0x258 arch/arm/cpu/armv8/built-in.o
                0x0000000082003110                print_cpuinfo
 .text.cpu_eth_init
                0x0000000082003368       0x18 arch/arm/cpu/armv8/built-in.o
                0x0000000082003368                cpu_eth_init
 .text.arch_early_init_r
                0x0000000082003380       0x44 arch/arm/cpu/armv8/built-in.o
                0x0000000082003380                arch_early_init_r
 .text.timer_init
                0x00000000820033c4       0x14 arch/arm/cpu/armv8/built-in.o
                0x00000000820033c4                timer_init
 .text.efi_reset_system_init
                0x00000000820033d8       0x10 arch/arm/cpu/armv8/built-in.o
                0x00000000820033d8                efi_reset_system_init
 .text.get_effective_memsize
                0x00000000820033e8       0x60 arch/arm/cpu/armv8/built-in.o
                0x00000000820033e8                get_effective_memsize
 .text.tfa_get_dram_size
                0x0000000082003448       0x3c arch/arm/cpu/armv8/built-in.o
                0x0000000082003448                tfa_get_dram_size
 .text.dram_init_banksize
                0x0000000082003484      0x150 arch/arm/cpu/armv8/built-in.o
                0x0000000082003484                dram_init_banksize
 .text.efi_add_known_memory
                0x00000000820035d4       0x64 arch/arm/cpu/armv8/built-in.o
                0x00000000820035d4                efi_add_known_memory
 .text.dram_init
                0x0000000082003638       0x18 arch/arm/cpu/armv8/built-in.o
                0x0000000082003638                dram_init
 .text.get_core_volt_from_fuse
                0x0000000082003650       0x74 arch/arm/cpu/armv8/built-in.o
                0x0000000082003650                get_core_volt_from_fuse
 .text.setup_chip_volt
                0x00000000820036c4       0x88 arch/arm/cpu/armv8/built-in.o
                0x00000000820036c4                setup_chip_volt
 .text.fsl_lsch2_early_init_f
                0x000000008200374c      0x190 arch/arm/cpu/armv8/built-in.o
                0x000000008200374c                fsl_lsch2_early_init_f
 .text.qspi_ahb_init
                0x00000000820038dc       0xb8 arch/arm/cpu/armv8/built-in.o
                0x00000000820038dc                qspi_ahb_init
 .text.fsl_setenv_bootcmd
                0x0000000082003994       0x74 arch/arm/cpu/armv8/built-in.o
                0x0000000082003994                fsl_setenv_bootcmd
 .text.board_late_init
                0x0000000082003a08       0x3c arch/arm/cpu/armv8/built-in.o
                0x0000000082003a08                board_late_init
 .text.core_to_pos
                0x0000000082003a44       0xd8 arch/arm/cpu/armv8/built-in.o
 .text.get_spin_tbl_addr
                0x0000000082003b1c        0xc arch/arm/cpu/armv8/built-in.o
                0x0000000082003b1c                get_spin_tbl_addr
 .text.update_os_arch_secondary_cores
                0x0000000082003b28       0x38 arch/arm/cpu/armv8/built-in.o
                0x0000000082003b28                update_os_arch_secondary_cores
 .text.fsl_layerscape_wake_seconday_cores
                0x0000000082003b60      0x1b8 arch/arm/cpu/armv8/built-in.o
                0x0000000082003b60                fsl_layerscape_wake_seconday_cores
 .text.is_core_valid
                0x0000000082003d18       0x30 arch/arm/cpu/armv8/built-in.o
                0x0000000082003d18                is_core_valid
 .text.is_core_online
                0x0000000082003d48       0x2c arch/arm/cpu/armv8/built-in.o
                0x0000000082003d48                is_core_online
 .text.cpu_reset
                0x0000000082003d74       0x20 arch/arm/cpu/armv8/built-in.o
                0x0000000082003d74                cpu_reset
 .text.cpu_disable
                0x0000000082003d94       0x20 arch/arm/cpu/armv8/built-in.o
                0x0000000082003d94                cpu_disable
 .text.cpu_status
                0x0000000082003db4       0xa0 arch/arm/cpu/armv8/built-in.o
                0x0000000082003db4                cpu_status
 .text.cpu_release
                0x0000000082003e54       0x7c arch/arm/cpu/armv8/built-in.o
                0x0000000082003e54                cpu_release
 .text.fdt_fixup_phy_connection
                0x0000000082003ed0       0x60 arch/arm/cpu/armv8/built-in.o
                0x0000000082003ed0                fdt_fixup_phy_connection
 .text.ft_fixup_cpu
                0x0000000082003f30      0x34c arch/arm/cpu/armv8/built-in.o
                0x0000000082003f30                ft_fixup_cpu
 .text.fdt_fixup_remove_jr
                0x000000008200427c       0xe0 arch/arm/cpu/armv8/built-in.o
                0x000000008200427c                fdt_fixup_remove_jr
 .text.ft_cpu_setup
                0x000000008200435c       0xfc arch/arm/cpu/armv8/built-in.o
                0x000000008200435c                ft_cpu_setup
 .text.get_sys_info
                0x0000000082004458      0x1f8 arch/arm/cpu/armv8/built-in.o
                0x0000000082004458                get_sys_info
 .text.get_qman_freq
                0x0000000082004650       0x1c arch/arm/cpu/armv8/built-in.o
                0x0000000082004650                get_qman_freq
 .text.get_clocks
                0x000000008200466c       0x44 arch/arm/cpu/armv8/built-in.o
                0x000000008200466c                get_clocks
 .text.get_bus_freq
                0x00000000820046b0       0x28 arch/arm/cpu/armv8/built-in.o
                0x00000000820046b0                get_bus_freq
 .text.get_ddr_freq
                0x00000000820046d8       0x28 arch/arm/cpu/armv8/built-in.o
                0x00000000820046d8                get_ddr_freq
 .text.get_sdhc_freq
                0x0000000082004700       0x28 arch/arm/cpu/armv8/built-in.o
                0x0000000082004700                get_sdhc_freq
 .text.get_serial_clock
                0x0000000082004728       0x1c arch/arm/cpu/armv8/built-in.o
                0x0000000082004728                get_serial_clock
 .text.get_i2c_freq
                0x0000000082004744       0x1c arch/arm/cpu/armv8/built-in.o
                0x0000000082004744                get_i2c_freq
 .text.mxc_get_clock
                0x0000000082004760       0x54 arch/arm/cpu/armv8/built-in.o
                0x0000000082004760                mxc_get_clock
 .text.serdes_init
                0x00000000820047b4       0xdc arch/arm/cpu/armv8/built-in.o
                0x00000000820047b4                serdes_init
 .text.setup_serdes_volt
                0x0000000082004890      0x5f4 arch/arm/cpu/armv8/built-in.o
                0x0000000082004890                setup_serdes_volt
 .text.fsl_serdes_init
                0x0000000082004e84       0x44 arch/arm/cpu/armv8/built-in.o
                0x0000000082004e84                fsl_serdes_init
 .text.is_serdes_configured
                0x0000000082004ec8       0x68 arch/arm/cpu/armv8/built-in.o
                0x0000000082004ec8                is_serdes_configured
 .text.serdes_get_prtcl
                0x0000000082004f30       0x40 arch/arm/cpu/armv8/built-in.o
                0x0000000082004f30                serdes_get_prtcl
 .text.is_serdes_prtcl_valid
                0x0000000082004f70       0x5c arch/arm/cpu/armv8/built-in.o
                0x0000000082004f70                is_serdes_prtcl_valid
 .text.set_fman_icids
                0x0000000082004fcc       0x40 arch/arm/cpu/armv8/built-in.o
                0x0000000082004fcc                set_fman_icids
 .text.set_icids
                0x000000008200500c       0x4c arch/arm/cpu/armv8/built-in.o
                0x000000008200500c                set_icids
 .text.fdt_set_iommu_prop
                0x0000000082005058       0x78 arch/arm/cpu/armv8/built-in.o
                0x0000000082005058                fdt_set_iommu_prop
 .text.fdt_fixup_icid_tbl
                0x00000000820050d0       0xb8 arch/arm/cpu/armv8/built-in.o
                0x00000000820050d0                fdt_fixup_icid_tbl
 .text.get_fman_port_icid
                0x0000000082005188       0x38 arch/arm/cpu/armv8/built-in.o
                0x0000000082005188                get_fman_port_icid
 .text.fdt_fixup_fman_port_icid_by_compat
                0x00000000820051c0      0x100 arch/arm/cpu/armv8/built-in.o
                0x00000000820051c0                fdt_fixup_fman_port_icid_by_compat
 .text.fdt_fixup_fman_icids
                0x00000000820052c0       0x50 arch/arm/cpu/armv8/built-in.o
                0x00000000820052c0                fdt_fixup_fman_icids
 .text.fdt_get_smmu_phandle
                0x0000000082005310       0x80 arch/arm/cpu/armv8/built-in.o
                0x0000000082005310                fdt_get_smmu_phandle
 .text.fdt_fixup_icid
                0x0000000082005390       0x58 arch/arm/cpu/armv8/built-in.o
                0x0000000082005390                fdt_fixup_icid
 .text          0x00000000820053e8      0x220 arch/arm/lib/built-in.o
                0x00000000820053e8                _main
                0x0000000082005468                relocate_code
                0x000000008200552c                ccn504_add_masters_to_dvm
                0x0000000082005548                ccn504_set_qos
                0x000000008200555c                ccn504_set_aux
                0x0000000082005570                gic_init_secure
                0x00000000820055b4                gic_init_secure_percpu
                0x00000000820055d8                gic_kick_secondary_cpus
                0x00000000820055e8                gic_wait_for_interrupt
 .text.setjmp   0x0000000082005608       0x28 arch/arm/lib/built-in.o
                0x0000000082005608                setjmp
 .text.longjmp  0x0000000082005630       0x2c arch/arm/lib/built-in.o
                0x0000000082005630                longjmp
 .text.arch_fixup_fdt
                0x000000008200565c       0x64 arch/arm/lib/built-in.o
                0x000000008200565c                arch_fixup_fdt
 .text.boot_prep_linux
                0x00000000820056c0       0x58 arch/arm/lib/built-in.o
 .text.arch_lmb_reserve
                0x0000000082005718       0x84 arch/arm/lib/built-in.o
                0x0000000082005718                arch_lmb_reserve
 .text.board_quiesce_devices
                0x000000008200579c        0x4 arch/arm/lib/built-in.o
                0x000000008200579c                board_quiesce_devices
 .text.boot_jump_linux
                0x00000000820057a0       0xc0 arch/arm/lib/built-in.o
 .text.do_bootm_linux
                0x0000000082005860       0x74 arch/arm/lib/built-in.o
                0x0000000082005860                do_bootm_linux
 .text.boot_prep_vxworks
                0x00000000820058d4       0x54 arch/arm/lib/built-in.o
                0x00000000820058d4                boot_prep_vxworks
 .text.boot_jump_vxworks
                0x0000000082005928        0xc arch/arm/lib/built-in.o
                0x0000000082005928                boot_jump_vxworks
 .text.booti_setup
                0x0000000082005934       0xb8 arch/arm/lib/built-in.o
                0x0000000082005934                booti_setup
 .text.arch_reserve_stacks
                0x00000000820059ec       0x10 arch/arm/lib/built-in.o
                0x00000000820059ec                arch_reserve_stacks
 .text.interrupt_init
                0x00000000820059fc        0x8 arch/arm/lib/built-in.o
                0x00000000820059fc                interrupt_init
 .text.enable_interrupts
                0x0000000082005a04        0x4 arch/arm/lib/built-in.o
                0x0000000082005a04                enable_interrupts
 .text.disable_interrupts
                0x0000000082005a08        0x8 arch/arm/lib/built-in.o
                0x0000000082005a08                disable_interrupts
 .text.show_regs
                0x0000000082005a10       0x9c arch/arm/lib/built-in.o
                0x0000000082005a10                show_regs
 .text.do_bad_sync
                0x0000000082005aac       0x3c arch/arm/lib/built-in.o
                0x0000000082005aac                do_bad_sync
 .text.do_bad_irq
                0x0000000082005ae8       0x3c arch/arm/lib/built-in.o
                0x0000000082005ae8                do_bad_irq
 .text.do_bad_fiq
                0x0000000082005b24       0x3c arch/arm/lib/built-in.o
                0x0000000082005b24                do_bad_fiq
 .text.do_bad_error
                0x0000000082005b60       0x3c arch/arm/lib/built-in.o
                0x0000000082005b60                do_bad_error
 .text.do_sync  0x0000000082005b9c       0x3c arch/arm/lib/built-in.o
                0x0000000082005b9c                do_sync
 .text.do_irq   0x0000000082005bd8       0x3c arch/arm/lib/built-in.o
                0x0000000082005bd8                do_irq
 .text.do_fiq   0x0000000082005c14       0x3c arch/arm/lib/built-in.o
                0x0000000082005c14                do_fiq
 .text.do_error
                0x0000000082005c50       0x3c arch/arm/lib/built-in.o
                0x0000000082005c50                do_error
 .text.reset_misc
                0x0000000082005c8c        0x4 arch/arm/lib/built-in.o
                0x0000000082005c8c                reset_misc
 .text.do_reset
                0x0000000082005c90       0x50 arch/arm/lib/built-in.o
                0x0000000082005c90                do_reset
 .text.flush_cache
                0x0000000082005ce0        0x8 arch/arm/lib/built-in.o
                0x0000000082005ce0                flush_cache
 .text.fdt_psci
                0x0000000082005ce8      0x224 arch/arm/lib/built-in.o
                0x0000000082005ce8                fdt_psci
 .text.update_crc
                0x0000000082005f0c       0x50 board/freescale/common/built-in.o
 .text.read_eeprom.part.0
                0x0000000082005f5c       0x64 board/freescale/common/built-in.o
 .text.do_mac   0x0000000082005fc0      0x548 board/freescale/common/built-in.o
                0x0000000082005fc0                do_mac
 .text.mac_read_from_eeprom
                0x0000000082006508      0x2b0 board/freescale/common/built-in.o
                0x0000000082006508                mac_read_from_eeprom
 .text.mc34vr500_get_sw_volt
                0x00000000820067b8       0xec board/freescale/common/built-in.o
                0x00000000820067b8                mc34vr500_get_sw_volt
 .text.mc34vr500_set_sw_volt
                0x00000000820068a4       0xb4 board/freescale/common/built-in.o
                0x00000000820068a4                mc34vr500_set_sw_volt
 .text.set_devices_ns_access
                0x0000000082006958       0x3c board/freescale/common/built-in.o
                0x0000000082006958                set_devices_ns_access
 .text.enable_layerscape_ns_access
                0x0000000082006994       0x58 board/freescale/common/built-in.o
                0x0000000082006994                enable_layerscape_ns_access
 .text.fsl_initdram
                0x00000000820069ec       0x3c board/freescale/ls1046afrwy/built-in.o
                0x00000000820069ec                fsl_initdram
 .text.select_i2c_ch_pca9547
                0x0000000082006a28       0x4c board/freescale/ls1046afrwy/built-in.o
                0x0000000082006a28                select_i2c_ch_pca9547
 .text.board_early_init_f
                0x0000000082006a74       0x18 board/freescale/ls1046afrwy/built-in.o
                0x0000000082006a74                board_early_init_f
 .text.checkboard
                0x0000000082006a8c       0x94 board/freescale/ls1046afrwy/built-in.o
                0x0000000082006a8c                checkboard
 .text.board_init
                0x0000000082006b20       0x20 board/freescale/ls1046afrwy/built-in.o
                0x0000000082006b20                board_init
 .text.board_setup_core_volt
                0x0000000082006b40        0x8 board/freescale/ls1046afrwy/built-in.o
                0x0000000082006b40                board_setup_core_volt
 .text.get_serdes_volt
                0x0000000082006b48        0x8 board/freescale/ls1046afrwy/built-in.o
                0x0000000082006b48                get_serdes_volt
 .text.set_serdes_volt
                0x0000000082006b50        0xc board/freescale/ls1046afrwy/built-in.o
                0x0000000082006b50                set_serdes_volt
 .text.power_init_board
                0x0000000082006b5c       0x30 board/freescale/ls1046afrwy/built-in.o
                0x0000000082006b5c                power_init_board
 .text.config_board_mux
                0x0000000082006b8c       0x94 board/freescale/ls1046afrwy/built-in.o
                0x0000000082006b8c                config_board_mux
 .text.misc_init_r
                0x0000000082006c20       0x18 board/freescale/ls1046afrwy/built-in.o
                0x0000000082006c20                misc_init_r
 .text.ft_board_setup
                0x0000000082006c38       0x80 board/freescale/ls1046afrwy/built-in.o
                0x0000000082006c38                ft_board_setup
 .text.checkFileSize
                0x0000000082006cb8       0x64 board/freescale/ls1046afrwy/built-in.o
                0x0000000082006cb8                checkFileSize
 .text.do_update_uboot
                0x0000000082006d1c      0x140 board/freescale/ls1046afrwy/built-in.o
                0x0000000082006d1c                do_update_uboot
 .text.board_eth_init
                0x0000000082006e5c       0xec board/freescale/ls1046afrwy/built-in.o
                0x0000000082006e5c                board_eth_init
 .text.fdt_update_ethernet_dt
                0x0000000082006f48      0x138 board/freescale/ls1046afrwy/built-in.o
                0x0000000082006f48                fdt_update_ethernet_dt
 .text.do_go_exec
                0x0000000082007080       0x10 cmd/built-in.o
                0x0000000082007080                do_go_exec
 .text.do_go    0x0000000082007090       0x88 cmd/built-in.o
 .text.do_bootm
                0x0000000082007118      0x108 cmd/built-in.o
                0x0000000082007118                do_bootm
 .text.do_bootd
                0x0000000082007220       0x2c cmd/built-in.o
                0x0000000082007220                do_bootd
 .text.image_info
                0x000000008200724c      0x128 cmd/built-in.o
 .text.do_iminfo
                0x0000000082007374       0x74 cmd/built-in.o
 .text.bootm_maybe_autostart
                0x00000000820073e8       0x74 cmd/built-in.o
                0x00000000820073e8                bootm_maybe_autostart
 .text.do_help  0x000000008200745c       0x44 cmd/built-in.o
 .text.do_version
                0x00000000820074a0       0x40 cmd/built-in.o
 .text.blk_common_cmd
                0x00000000820074e0      0x32c cmd/built-in.o
                0x00000000820074e0                blk_common_cmd
 .text.source   0x000000008200780c      0x204 cmd/built-in.o
                0x000000008200780c                source
 .text.do_source
                0x0000000082007a10       0x78 cmd/built-in.o
 .text.print_num
                0x0000000082007a88       0x18 cmd/built-in.o
 .text.do_bdinfo
                0x0000000082007aa0      0x21c cmd/built-in.o
 .text.do_blkcache
                0x0000000082007cbc       0x80 cmd/built-in.o
 .text.blkc_configure
                0x0000000082007d3c       0x78 cmd/built-in.o
 .text.blkc_show
                0x0000000082007db4       0x34 cmd/built-in.o
 .text.efi_install_fdt
                0x0000000082007de8      0x214 cmd/built-in.o
 .text.do_bootefi_exec
                0x0000000082007ffc      0x248 cmd/built-in.o
 .text.allow_unaligned
                0x0000000082008244        0x4 cmd/built-in.o
                0x0000000082008244                allow_unaligned
 .text.do_bootefi
                0x0000000082008248      0x164 cmd/built-in.o
 .text.efi_set_bootdev
                0x00000000820083ac       0x84 cmd/built-in.o
                0x00000000820083ac                efi_set_bootdev
 .text.do_booti
                0x0000000082008430      0x110 cmd/built-in.o
                0x0000000082008430                do_booti
 .text.parse_argv
                0x0000000082008540       0x68 cmd/built-in.o
 .text.do_icache
                0x00000000820085a8       0x98 cmd/built-in.o
 .text.do_dcache
                0x0000000082008640       0x98 cmd/built-in.o
 .text.do_coninfo
                0x00000000820086d8       0xdc cmd/built-in.o
 .text.do_echo  0x00000000820087b4       0xd8 cmd/built-in.o
 .text.load_elf_image_phdr
                0x000000008200888c      0x130 cmd/built-in.o
 .text.valid_elf_image
                0x00000000820089bc       0x58 cmd/built-in.o
                0x00000000820089bc                valid_elf_image
 .text.do_bootelf
                0x0000000082008a14      0x290 cmd/built-in.o
                0x0000000082008a14                do_bootelf
 .text.do_bootvx
                0x0000000082008ca4      0x334 cmd/built-in.o
                0x0000000082008ca4                do_bootvx
 .text.do_exit  0x0000000082008fd8       0x40 cmd/built-in.o
 .text.do_ext4_size
                0x0000000082009018        0x8 cmd/built-in.o
                0x0000000082009018                do_ext4_size
 .text.do_ext4_load
                0x0000000082009020        0x8 cmd/built-in.o
                0x0000000082009020                do_ext4_load
 .text.do_ext4_ls
                0x0000000082009028        0x8 cmd/built-in.o
                0x0000000082009028                do_ext4_ls
 .text.do_ext2load
                0x0000000082009030        0x8 cmd/built-in.o
                0x0000000082009030                do_ext2load
 .text.do_ext2ls
                0x0000000082009038        0x8 cmd/built-in.o
 .text.do_fat_size
                0x0000000082009040        0x8 cmd/built-in.o
                0x0000000082009040                do_fat_size
 .text.do_fat_fsload
                0x0000000082009048        0x8 cmd/built-in.o
                0x0000000082009048                do_fat_fsload
 .text.do_fat_ls
                0x0000000082009050        0x8 cmd/built-in.o
 .text.do_fat_fsinfo
                0x0000000082009058       0x94 cmd/built-in.o
 .text.fdt_valid
                0x00000000820090ec       0xcc cmd/built-in.o
 .text.is_printable_string
                0x00000000820091b8       0x80 cmd/built-in.o
 .text.print_data
                0x0000000082009238      0x1b8 cmd/built-in.o
 .text.set_working_fdt_addr
                0x00000000820093f0       0x18 cmd/built-in.o
                0x00000000820093f0                set_working_fdt_addr
 .text.do_fdt   0x0000000082009408      0xfb8 cmd/built-in.o
 .text.do_flinfo
                0x000000008200a3c0        0x8 cmd/built-in.o
 .text.do_protect
                0x000000008200a3c8        0xc cmd/built-in.o
 .text.do_flerase
                0x000000008200a3d4        0x8 cmd/built-in.o
 .text.do_size_wrapper
                0x000000008200a3dc        0x8 cmd/built-in.o
 .text.do_load_wrapper
                0x000000008200a3e4       0x80 cmd/built-in.o
 .text.do_save_wrapper
                0x000000008200a464        0x8 cmd/built-in.o
 .text.do_ls_wrapper
                0x000000008200a46c        0x8 cmd/built-in.o
 .text.do_fstype_wrapper
                0x000000008200a474        0x4 cmd/built-in.o
 .text.do_i2c   0x000000008200a478       0x80 cmd/built-in.o
 .text.do_i2c_bus_speed
                0x000000008200a4f8       0x88 cmd/built-in.o
 .text.do_i2c_reset
                0x000000008200a580       0x3c cmd/built-in.o
 .text.do_i2c_probe
                0x000000008200a5bc       0xa4 cmd/built-in.o
 .text.do_i2c_bus_num
                0x000000008200a660       0xd0 cmd/built-in.o
 .text.do_i2c_show_bus
                0x000000008200a730      0x10c cmd/built-in.o
 .text.get_alen.constprop.5
                0x000000008200a83c       0x38 cmd/built-in.o
 .text.do_i2c_crc
                0x000000008200a874      0x144 cmd/built-in.o
 .text.mod_i2c_mem.isra.3
                0x000000008200a9b8      0x238 cmd/built-in.o
 .text.do_i2c_nm
                0x000000008200abf0        0x8 cmd/built-in.o
 .text.do_i2c_mm
                0x000000008200abf8        0x8 cmd/built-in.o
 .text.do_i2c_md
                0x000000008200ac00      0x208 cmd/built-in.o
 .text.do_i2c_read
                0x000000008200ae08       0xdc cmd/built-in.o
 .text.do_i2c_mw
                0x000000008200aee4      0x120 cmd/built-in.o
 .text.do_i2c_write
                0x000000008200b004      0x17c cmd/built-in.o
 .text.do_i2c_loop
                0x000000008200b180      0x114 cmd/built-in.o
 .text.i2c_init_board
                0x000000008200b294        0x4 cmd/built-in.o
                0x000000008200b294                i2c_init_board
 .text.do_hash  0x000000008200b298       0x4c cmd/built-in.o
 .text.evalexp  0x000000008200b2e4       0x94 cmd/built-in.o
 .text.evalstr  0x000000008200b378       0x5c cmd/built-in.o
 .text.binary_test
                0x000000008200b3d4      0x1ac cmd/built-in.o
 .text.do_itest
                0x000000008200b580       0x90 cmd/built-in.o
 .text.bin_data_init
                0x000000008200b610       0x1c cmd/built-in.o
 .text.k_data_save
                0x000000008200b62c       0x34 cmd/built-in.o
 .text.k_data_restore
                0x000000008200b660       0x34 cmd/built-in.o
 .text.getcxmodem
                0x000000008200b694       0x24 cmd/built-in.o
 .text.load_serial_ymodem
                0x000000008200b6b8       0xf0 cmd/built-in.o
 .text.bin_data_char
                0x000000008200b7a8       0x28 cmd/built-in.o
 .text.chk1.constprop.2
                0x000000008200b7d0       0x34 cmd/built-in.o
 .text.s1_sendpacket.constprop.3
                0x000000008200b804       0x60 cmd/built-in.o
 .text.load_serial
                0x000000008200b864      0x1ec cmd/built-in.o
 .text.do_load_serial
                0x000000008200ba50       0xe4 cmd/built-in.o
 .text.do_load_serial_bin
                0x000000008200bb34      0x7dc cmd/built-in.o
 .text.do_mem_loop
                0x000000008200c310      0x144 cmd/built-in.o
 .text.do_mem_md
                0x000000008200c454       0xf4 cmd/built-in.o
 .text.do_mem_cmp
                0x000000008200c548      0x1a8 cmd/built-in.o
 .text.do_mem_base
                0x000000008200c6f0       0x4c cmd/built-in.o
 .text.do_mem_mw
                0x000000008200c73c      0x108 cmd/built-in.o
 .text.do_mem_cp
                0x000000008200c844       0xc0 cmd/built-in.o
 .text.do_mem_crc
                0x000000008200c904       0x30 cmd/built-in.o
 .text.mod_mem.isra.0
                0x000000008200c934      0x1c8 cmd/built-in.o
 .text.do_mem_mm
                0x000000008200cafc        0x8 cmd/built-in.o
 .text.do_mem_nm
                0x000000008200cb04        0x8 cmd/built-in.o
 .text.extract_range
                0x000000008200cb0c       0xf8 cmd/built-in.o
 .text.do_mii   0x000000008200cc04      0x8dc cmd/built-in.o
 .text.do_mdio  0x000000008200d4e0      0x4a4 cmd/built-in.o
 .text.do_sleep
                0x000000008200d984       0xe8 cmd/built-in.o
 .text.do_mmcops
                0x000000008200da6c       0xe4 cmd/built-in.o
 .text.init_mmc_device
                0x000000008200db50       0x84 cmd/built-in.o
 .text.do_mmc_rescan
                0x000000008200dbd4       0x28 cmd/built-in.o
 .text.do_mmc_hwpartition
                0x000000008200dbfc      0x4f0 cmd/built-in.o
 .text.do_mmc_list
                0x000000008200e0ec       0x1c cmd/built-in.o
 .text.do_mmc_dev
                0x000000008200e108      0x14c cmd/built-in.o
 .text.do_mmc_erase
                0x000000008200e254      0x104 cmd/built-in.o
 .text.do_mmc_write
                0x000000008200e358      0x124 cmd/built-in.o
 .text.do_mmc_read
                0x000000008200e47c       0xfc cmd/built-in.o
 .text.do_mmcinfo
                0x000000008200e578      0x3bc cmd/built-in.o
 .text.do_mmc_setdsr
                0x000000008200e934       0xbc cmd/built-in.o
 .text.do_mmc_part
                0x000000008200e9f0       0x64 cmd/built-in.o
 .text.cpu_cmd  0x000000008200ea54      0x16c cmd/built-in.o
 .text.set_dev  0x000000008200ebc0       0x64 cmd/built-in.o
 .text.do_nandboot
                0x000000008200ec24      0x340 cmd/built-in.o
 .text.nand_print_and_set_info.constprop.0
                0x000000008200ef64      0x100 cmd/built-in.o
 .text.do_nand  0x000000008200f064      0xaf8 cmd/built-in.o
 .text.netboot_common
                0x000000008200fb5c      0x2b8 cmd/built-in.o
 .text.do_bootp
                0x000000008200fe14        0xc cmd/built-in.o
 .text.do_dhcp  0x000000008200fe20        0xc cmd/built-in.o
 .text.do_nfs   0x000000008200fe2c        0xc cmd/built-in.o
 .text.do_tftpb
                0x000000008200fe38       0x58 cmd/built-in.o
                0x000000008200fe38                do_tftpb
 .text.do_ping  0x000000008200fe90       0x7c cmd/built-in.o
 .text.efi_dump_single_var
                0x000000008200ff0c      0x170 cmd/built-in.o
 .text.do_env_print_efi
                0x000000008201007c      0x19c cmd/built-in.o
                0x000000008201007c                do_env_print_efi
 .text.do_env_set_efi
                0x0000000082010218      0x3c4 cmd/built-in.o
                0x0000000082010218                do_env_set_efi
 .text.do_part_list
                0x00000000820105dc      0x188 cmd/built-in.o
 .text.do_part_info
                0x0000000082010764      0x108 cmd/built-in.o
 .text.do_part  0x000000008201086c      0x110 cmd/built-in.o
 .text.pci_cfg_modify.isra.0
                0x000000008201097c      0x134 cmd/built-in.o
 .text.pci_show_regs
                0x0000000082010ab0       0xb0 cmd/built-in.o
 .text.pci_bar_show
                0x0000000082010b60      0x1e0 cmd/built-in.o
                0x0000000082010b60                pci_bar_show
 .text.pci_header_show
                0x0000000082010d40       0xd4 cmd/built-in.o
                0x0000000082010d40                pci_header_show
 .text.pciinfo_header
                0x0000000082010e14       0x50 cmd/built-in.o
                0x0000000082010e14                pciinfo_header
 .text.do_pci   0x0000000082010e64      0x5e4 cmd/built-in.o
 .text.eol_or_eof
                0x0000000082011448       0x24 cmd/built-in.o
 .text.do_pxe   0x000000008201146c       0x8c cmd/built-in.o
 .text.label_print
                0x00000000820114f8       0x1c cmd/built-in.o
 .text.do_get_tftp
                0x0000000082011514       0x3c cmd/built-in.o
 .text.from_env
                0x0000000082011550       0x3c cmd/built-in.o
 .text.get_string
                0x000000008201158c       0xe0 cmd/built-in.o
 .text.label_destroy
                0x000000008201166c       0x74 cmd/built-in.o
 .text.destroy_pxe_menu
                0x00000000820116e0       0x68 cmd/built-in.o
 .text.get_token
                0x0000000082011748      0x12c cmd/built-in.o
 .text.parse_sliteral
                0x0000000082011874       0x6c cmd/built-in.o
 .text.parse_integer
                0x00000000820118e0       0x84 cmd/built-in.o
 .text.do_get_any
                0x0000000082011964       0x44 cmd/built-in.o
 .text.do_get_fat
                0x00000000820119a8       0x40 cmd/built-in.o
 .text.do_get_ext2
                0x00000000820119e8       0x40 cmd/built-in.o
 .text.format_mac_pxe.constprop.6
                0x0000000082011a28       0x6c cmd/built-in.o
 .text.get_relfile
                0x0000000082011a94      0x138 cmd/built-in.o
 .text.get_pxe_file
                0x0000000082011bcc       0x60 cmd/built-in.o
 .text.handle_include
                0x0000000082011c2c       0xc4 cmd/built-in.o
 .text.parse_pxefile_top
                0x0000000082011cf0      0x444 cmd/built-in.o
 .text.parse_pxefile
                0x0000000082012134       0x7c cmd/built-in.o
 .text.get_pxelinux_path
                0x00000000820121b0       0x98 cmd/built-in.o
 .text.do_pxe_get
                0x0000000082012248      0x16c cmd/built-in.o
 .text.get_relfile_envaddr
                0x00000000820123b4       0x5c cmd/built-in.o
 .text.label_boot
                0x0000000082012410      0x5ec cmd/built-in.o
 .text.handle_pxe_menu
                0x00000000820129fc      0x17c cmd/built-in.o
 .text.do_pxe_boot
                0x0000000082012b78       0xf0 cmd/built-in.o
 .text.do_sysboot
                0x0000000082012c68      0x1fc cmd/built-in.o
 .text.bytes_per_second
                0x0000000082012e64       0x4c cmd/built-in.o
 .text.do_spi_flash
                0x0000000082012eb0      0x848 cmd/built-in.o
 .text.do_scsiboot
                0x00000000820136f8        0xc cmd/built-in.o
 .text.do_scsi  0x0000000082013704       0x94 cmd/built-in.o
 .text.common_diskboot
                0x0000000082013798      0x2a4 cmd/built-in.o
                0x0000000082013798                common_diskboot
 .text.substitute
                0x0000000082013a3c      0x118 cmd/built-in.o
 .text.get_arg  0x0000000082013b54       0x68 cmd/built-in.o
 .text.regex_sub.part.1
                0x0000000082013bbc      0x2c8 cmd/built-in.o
 .text.do_setexpr
                0x0000000082013e84      0x1a8 cmd/built-in.o
 .text.do_false
                0x000000008201402c        0x8 cmd/built-in.o
 .text.do_true  0x0000000082014034        0x8 cmd/built-in.o
 .text.do_test  0x000000008201403c      0x358 cmd/built-in.o
 .text.do_unzip
                0x0000000082014394       0xbc cmd/built-in.o
 .text.do_gzwrite
                0x0000000082014450      0x118 cmd/built-in.o
 .text.do_lzmadec
                0x0000000082014568       0xbc cmd/built-in.o
 .text.usb_get_class_desc
                0x0000000082014624       0xc0 cmd/built-in.o
 .text.usb_display_class_sub
                0x00000000820146e4      0x18c cmd/built-in.o
 .text.usb_display_desc
                0x0000000082014870      0x144 cmd/built-in.o
 .text.usb_show_tree_graph
                0x00000000820149b4      0x234 cmd/built-in.o
 .text.usb_show_subtree
                0x0000000082014be8       0x38 cmd/built-in.o
 .text.usb_for_each_root_dev
                0x0000000082014c20       0x68 cmd/built-in.o
 .text.usb_display_string
                0x0000000082014c88       0x4c cmd/built-in.o
 .text.usb_display_config
                0x0000000082014cd4      0x268 cmd/built-in.o
 .text.usb_show_info
                0x0000000082014f3c       0x78 cmd/built-in.o
 .text.usb_find_device
                0x0000000082014fb4       0xb0 cmd/built-in.o
 .text.do_usbboot
                0x0000000082015064        0xc cmd/built-in.o
 .text.do_usb_start
                0x0000000082015070       0x30 cmd/built-in.o
 .text.usb_show_tree
                0x00000000820150a0        0xc cmd/built-in.o
                0x00000000820150a0                usb_show_tree
 .text.do_usb   0x00000000820150ac      0x404 cmd/built-in.o
 .text.do_imgextract
                0x00000000820154b0      0x3bc cmd/built-in.o
 .text.extract_val
                0x000000008201586c       0xac cmd/built-in.o
 .text.extract_env
                0x0000000082015918       0xf8 cmd/built-in.o
 .text.set_gpt_info.isra.0.constprop.1
                0x0000000082015a10      0x45c cmd/built-in.o
 .text.do_gpt   0x0000000082015e6c      0x2e8 cmd/built-in.o
 .text.do_env_delete
                0x0000000082016154       0xc0 cmd/built-in.o
 .text.do_env_exists
                0x0000000082016214       0x60 cmd/built-in.o
 .text._do_env_set
                0x0000000082016274      0x1f8 cmd/built-in.o
 .text.do_env_set
                0x000000008201646c       0x24 cmd/built-in.o
 .text.do_env_save
                0x0000000082016490       0x1c cmd/built-in.o
 .text.do_env   0x00000000820164ac       0x80 cmd/built-in.o
 .text.env_print
                0x000000008201652c       0xc0 cmd/built-in.o
 .text.do_env_print
                0x00000000820165ec      0x104 cmd/built-in.o
 .text.do_env_import
                0x00000000820166f0      0x2b4 cmd/built-in.o
 .text.do_env_default
                0x00000000820169a4       0xa4 cmd/built-in.o
 .text.get_env_id
                0x0000000082016a48        0xc cmd/built-in.o
                0x0000000082016a48                get_env_id
 .text.env_set  0x0000000082016a54       0x58 cmd/built-in.o
                0x0000000082016a54                env_set
 .text.env_set_ulong
                0x0000000082016aac       0x2c cmd/built-in.o
                0x0000000082016aac                env_set_ulong
 .text.env_set_hex
                0x0000000082016ad8       0x3c cmd/built-in.o
                0x0000000082016ad8                env_set_hex
 .text.do_env_export
                0x0000000082016b14      0x218 cmd/built-in.o
 .text.eth_parse_enetaddr
                0x0000000082016d2c       0x70 cmd/built-in.o
                0x0000000082016d2c                eth_parse_enetaddr
 .text.envmatch
                0x0000000082016d9c       0x7c cmd/built-in.o
                0x0000000082016d9c                envmatch
 .text.env_get_f
                0x0000000082016e18      0x100 cmd/built-in.o
                0x0000000082016e18                env_get_f
 .text.env_get  0x0000000082016f18       0x78 cmd/built-in.o
                0x0000000082016f18                env_get
 .text.env_get_hex
                0x0000000082016f90       0x48 cmd/built-in.o
                0x0000000082016f90                env_get_hex
 .text.eth_env_get_enetaddr
                0x0000000082016fd8       0x6c cmd/built-in.o
                0x0000000082016fd8                eth_env_get_enetaddr
 .text.eth_env_set_enetaddr
                0x0000000082017044       0x54 cmd/built-in.o
                0x0000000082017044                eth_env_set_enetaddr
 .text.env_get_ulong
                0x0000000082017098       0x40 cmd/built-in.o
                0x0000000082017098                env_get_ulong
 .text.do_env_edit.part.2
                0x00000000820170d8       0xb8 cmd/built-in.o
 .text.do_env_edit
                0x0000000082017190       0x28 cmd/built-in.o
 .text.board_init_f_alloc_reserve
                0x00000000820171b8        0xc common/built-in.o
                0x00000000820171b8                board_init_f_alloc_reserve
 .text.board_init_f_init_reserve
                0x00000000820171c4       0x30 common/built-in.o
                0x00000000820171c4                board_init_f_init_reserve
 .text.show_boot_progress
                0x00000000820171f4        0x8 common/built-in.o
                0x00000000820171f4                show_boot_progress
 .text.main_loop
                0x00000000820171fc       0x50 common/built-in.o
                0x00000000820171fc                main_loop
 .text.mdelay   0x000000008201724c        0xc common/built-in.o
 .text.dummy    0x0000000082017258        0x4 common/built-in.o
 .text.get_version
                0x000000008201725c        0x8 common/built-in.o
                0x000000008201725c                get_version
 .text.jumptable_init
                0x0000000082017264      0x1f8 common/built-in.o
                0x0000000082017264                jumptable_init
 .text.hash_finish_crc32
                0x000000008201745c       0x38 common/built-in.o
 .text.hash_finish_crc16_ccitt
                0x0000000082017494       0x38 common/built-in.o
 .text.hash_update_crc32
                0x00000000820174cc       0x34 common/built-in.o
 .text.hash_init_crc32
                0x0000000082017500       0x30 common/built-in.o
 .text.hash_init_crc16_ccitt
                0x0000000082017530       0x30 common/built-in.o
 .text.hash_update_crc16_ccitt
                0x0000000082017560       0x34 common/built-in.o
 .text.hash_finish_sha256
                0x0000000082017594       0x48 common/built-in.o
 .text.hash_update_sha256
                0x00000000820175dc       0x24 common/built-in.o
 .text.hash_init_sha256
                0x0000000082017600       0x34 common/built-in.o
 .text.hash_finish_sha1
                0x0000000082017634       0x48 common/built-in.o
 .text.hash_update_sha1
                0x000000008201767c       0x24 common/built-in.o
 .text.hash_init_sha1
                0x00000000820176a0       0x34 common/built-in.o
 .text.hash_lookup_algo
                0x00000000820176d4       0x78 common/built-in.o
                0x00000000820176d4                hash_lookup_algo
 .text.hash_command
                0x000000008201774c      0x1e0 common/built-in.o
                0x000000008201774c                hash_command
 .text.b_reset  0x000000008201792c       0x18 common/built-in.o
 .text.static_get
                0x0000000082017944       0x1c common/built-in.o
 .text.static_peek
                0x0000000082017960        0xc common/built-in.o
 .text.mapset   0x000000008201796c       0x20 common/built-in.o
 .text.syntax_err
                0x000000008201798c        0xc common/built-in.o
 .text.free_pipe_list
                0x0000000082017998       0xf0 common/built-in.o
 .text.xmalloc  0x0000000082017a88       0x28 common/built-in.o
 .text.new_pipe
                0x0000000082017ab0       0x24 common/built-in.o
 .text.xrealloc
                0x0000000082017ad4       0x28 common/built-in.o
 .text.done_command
                0x0000000082017afc       0x94 common/built-in.o
 .text.done_pipe
                0x0000000082017b90       0x58 common/built-in.o
 .text.done_word
                0x0000000082017be8      0x2ac common/built-in.o
 .text.is_assignment
                0x0000000082017e94       0x4c common/built-in.o
 .text.file_get
                0x0000000082017ee0      0x1f8 common/built-in.o
 .text.do_showvar
                0x00000000820180d8      0x108 common/built-in.o
 .text.b_addchr
                0x00000000820181e0       0x94 common/built-in.o
 .text.b_addqchr
                0x0000000082018274       0x58 common/built-in.o
 .text.file_peek
                0x00000000820182cc        0xc common/built-in.o
 .text.get_local_var
                0x00000000820182d8       0x9c common/built-in.o
                0x00000000820182d8                get_local_var
 .text.set_local_var
                0x0000000082018374      0x1a4 common/built-in.o
                0x0000000082018374                set_local_var
 .text.insert_var_value_sub
                0x0000000082018518      0x2c0 common/built-in.o
 .text.parse_string_outer
                0x00000000820187d8       0xec common/built-in.o
                0x00000000820187d8                parse_string_outer
 .text.run_list_real
                0x00000000820188c4      0x724 common/built-in.o
 .text.parse_stream_outer
                0x0000000082018fe8      0x67c common/built-in.o
 .text.parse_file_outer
                0x0000000082019664       0x40 common/built-in.o
                0x0000000082019664                parse_file_outer
 .text.u_boot_hush_start
                0x00000000820196a4       0x58 common/built-in.o
                0x00000000820196a4                u_boot_hush_start
 .text.bootdelay_process
                0x00000000820196fc       0xd0 common/built-in.o
                0x00000000820196fc                bootdelay_process
 .text.autoboot_command
                0x00000000820197cc      0x114 common/built-in.o
                0x00000000820197cc                autoboot_command
 .text.log_init
                0x00000000820198e0       0x10 common/built-in.o
 .text.display_text_info
                0x00000000820198f0        0x8 common/built-in.o
 .text.setup_mon_len
                0x00000000820198f8       0x20 common/built-in.o
 .text.reserve_round_4k
                0x0000000082019918       0x14 common/built-in.o
 .text.reserve_uboot
                0x000000008201992c       0x38 common/built-in.o
 .text.reserve_malloc
                0x0000000082019964       0x14 common/built-in.o
 .text.reserve_global_data
                0x0000000082019978       0x1c common/built-in.o
 .text.reserve_fdt
                0x0000000082019994       0x48 common/built-in.o
 .text.reserve_mmu
                0x00000000820199dc       0x54 common/built-in.o
                0x00000000820199dc                reserve_mmu
 .text.setup_reloc
                0x0000000082019a30       0x48 common/built-in.o
 .text.reloc_fdt
                0x0000000082019a78       0x44 common/built-in.o
 .text.reserve_board
                0x0000000082019abc       0x48 common/built-in.o
 .text.announce_dram_init
                0x0000000082019b04       0x20 common/built-in.o
 .text.init_func_i2c
                0x0000000082019b24       0x30 common/built-in.o
 .text.init_baud_rate
                0x0000000082019b54       0x30 common/built-in.o
 .text.initf_dm
                0x0000000082019b84        0x8 common/built-in.o
 .text.initf_bootstage
                0x0000000082019b8c       0x1c common/built-in.o
 .text.arch_cpu_init_dm
                0x0000000082019ba8        0x8 common/built-in.o
                0x0000000082019ba8                arch_cpu_init_dm
 .text.setup_spl_handoff
                0x0000000082019bb0        0x8 common/built-in.o
 .text.mach_cpu_init
                0x0000000082019bb8        0x8 common/built-in.o
                0x0000000082019bb8                mach_cpu_init
 .text.reserve_video
                0x0000000082019bc0        0x8 common/built-in.o
 .text.reserve_trace
                0x0000000082019bc8        0x8 common/built-in.o
 .text.setup_machine
                0x0000000082019bd0        0x8 common/built-in.o
 .text.reserve_bootstage
                0x0000000082019bd8        0x8 common/built-in.o
 .text.reserve_bloblist
                0x0000000082019be0        0x8 common/built-in.o
 .text.display_new_sp
                0x0000000082019be8        0x8 common/built-in.o
 .text.reloc_bootstage
                0x0000000082019bf0        0x8 common/built-in.o
 .text.reloc_bloblist
                0x0000000082019bf8        0x8 common/built-in.o
 .text.initf_console_record
                0x0000000082019c00        0x8 common/built-in.o
 .text.reserve_arch
                0x0000000082019c08        0x8 common/built-in.o
                0x0000000082019c08                reserve_arch
 .text.show_dram_config
                0x0000000082019c10       0x44 common/built-in.o
 .text.board_get_usable_ram_top
                0x0000000082019c54       0x20 common/built-in.o
                0x0000000082019c54                board_get_usable_ram_top
 .text.setup_dest_addr
                0x0000000082019c74       0x4c common/built-in.o
 .text.reserve_stacks
                0x0000000082019cc0       0x1c common/built-in.o
 .text.board_init_f
                0x0000000082019cdc       0x84 common/built-in.o
                0x0000000082019cdc                board_init_f
 .text.initr_trace
                0x0000000082019d60        0x8 common/built-in.o
 .text.initr_reloc
                0x0000000082019d68       0x18 common/built-in.o
 .text.run_main_loop
                0x0000000082019d80       0x10 common/built-in.o
 .text.initr_net
                0x0000000082019d90       0x24 common/built-in.o
 .text.initr_ethaddr
                0x0000000082019db4       0x28 common/built-in.o
 .text.initr_enable_interrupts
                0x0000000082019ddc       0x18 common/built-in.o
 .text.initr_jumptable
                0x0000000082019df4       0x18 common/built-in.o
 .text.initr_env
                0x0000000082019e0c       0x74 common/built-in.o
 .text.initr_mmc
                0x0000000082019e80       0x28 common/built-in.o
 .text.initr_nand
                0x0000000082019ea8       0x38 common/built-in.o
 .text.initr_serial
                0x0000000082019ee0       0x18 common/built-in.o
 .text.initr_dm
                0x0000000082019ef8       0x14 common/built-in.o
 .text.initr_bootstage
                0x0000000082019f0c       0x1c common/built-in.o
 .text.initr_malloc
                0x0000000082019f28       0x28 common/built-in.o
 .text.initr_reloc_global_data
                0x0000000082019f50       0x3c common/built-in.o
 .text.initr_caches
                0x0000000082019f8c       0x18 common/built-in.o
 .text.bootstage_relocate
                0x0000000082019fa4        0x8 common/built-in.o
 .text.initr_pci
                0x0000000082019fac        0x8 common/built-in.o
 .text.initr_barrier
                0x0000000082019fb4        0x8 common/built-in.o
 .text.initr_console_record
                0x0000000082019fbc        0x8 common/built-in.o
 .text.initr_announce
                0x0000000082019fc4        0x8 common/built-in.o
 .text.cpu_secondary_init_r
                0x0000000082019fcc        0x4 common/built-in.o
                0x0000000082019fcc                cpu_secondary_init_r
 .text.initr_secondary_cpu
                0x0000000082019fd0       0x18 common/built-in.o
 .text.board_init_r
                0x0000000082019fe8       0x78 common/built-in.o
                0x0000000082019fe8                board_init_r
 .text.show_board_info
                0x000000008201a060       0x3c common/built-in.o
                0x000000008201a060                show_board_info
 .text.bootm_find_images
                0x000000008201a09c       0xcc common/built-in.o
                0x000000008201a09c                bootm_find_images
 .text.bootm_decomp_image
                0x000000008201a168      0x1a8 common/built-in.o
                0x000000008201a168                bootm_decomp_image
 .text.bootm_disable_interrupts
                0x000000008201a310       0x28 common/built-in.o
                0x000000008201a310                bootm_disable_interrupts
 .text.do_bootm_states
                0x000000008201a338      0x87c common/built-in.o
                0x000000008201a338                do_bootm_states
 .text.copy_args
                0x000000008201abb4       0x74 common/built-in.o
 .text.do_bootm_rtems
                0x000000008201ac28       0x7c common/built-in.o
 .text.do_bootm_vxworks
                0x000000008201aca4      0x154 common/built-in.o
                0x000000008201aca4                do_bootm_vxworks
 .text.do_bootm_plan9
                0x000000008201adf8       0xe4 common/built-in.o
 .text.do_bootm_standalone
                0x000000008201aedc       0x74 common/built-in.o
 .text.do_bootm_qnxelf
                0x000000008201af50       0xa8 common/built-in.o
 .text.do_bootm_netbsd
                0x000000008201aff8      0x154 common/built-in.o
 .text.arch_preboot_os
                0x000000008201b14c        0x4 common/built-in.o
                0x000000008201b14c                arch_preboot_os
 .text.board_preboot_os
                0x000000008201b150        0x4 common/built-in.o
                0x000000008201b150                board_preboot_os
 .text.boot_selected_os
                0x000000008201b154       0x7c common/built-in.o
                0x000000008201b154                boot_selected_os
 .text.bootm_os_get_boot_func
                0x000000008201b1d0       0x10 common/built-in.o
                0x000000008201b1d0                bootm_os_get_boot_func
 .text.of_bus_default_map
                0x000000008201b1e0       0xa8 common/built-in.o
 .text.of_bus_default_translate
                0x000000008201b288       0xb8 common/built-in.o
 .text.fdt_support_default_count_cells
                0x000000008201b340       0x70 common/built-in.o
                0x000000008201b340                fdt_support_default_count_cells
 .text.fdt_find_and_setprop
                0x000000008201b3b0       0x94 common/built-in.o
                0x000000008201b3b0                fdt_find_and_setprop
 .text.fdt_find_or_add_subnode
                0x000000008201b444       0x74 common/built-in.o
                0x000000008201b444                fdt_find_or_add_subnode
 .text.fdt_root
                0x000000008201b4b8       0x98 common/built-in.o
                0x000000008201b4b8                fdt_root
 .text.fdt_initrd
                0x000000008201b550      0x1b8 common/built-in.o
                0x000000008201b550                fdt_initrd
 .text.fdt_chosen
                0x000000008201b708      0x108 common/built-in.o
                0x000000008201b708                fdt_chosen
 .text.do_fixup_by_path
                0x000000008201b810       0x4c common/built-in.o
                0x000000008201b810                do_fixup_by_path
 .text.do_fixup_by_path_u32
                0x000000008201b85c       0x28 common/built-in.o
                0x000000008201b85c                do_fixup_by_path_u32
 .text.do_fixup_by_prop
                0x000000008201b884       0xc8 common/built-in.o
                0x000000008201b884                do_fixup_by_prop
 .text.do_fixup_by_compat
                0x000000008201b94c       0xa8 common/built-in.o
                0x000000008201b94c                do_fixup_by_compat
 .text.do_fixup_by_compat_u32
                0x000000008201b9f4       0x28 common/built-in.o
                0x000000008201b9f4                do_fixup_by_compat_u32
 .text.fdt_fixup_memory_banks
                0x000000008201ba1c      0x23c common/built-in.o
                0x000000008201ba1c                fdt_fixup_memory_banks
 .text.fdt_fixup_memory
                0x000000008201bc58       0x2c common/built-in.o
                0x000000008201bc58                fdt_fixup_memory
 .text.fdt_fixup_ethernet
                0x000000008201bc84      0x200 common/built-in.o
                0x000000008201bc84                fdt_fixup_ethernet
 .text.fdt_shrink_to_minimum
                0x000000008201be84       0xc8 common/built-in.o
                0x000000008201be84                fdt_shrink_to_minimum
 .text.fdt_increase_size
                0x000000008201bf4c       0x14 common/built-in.o
                0x000000008201bf4c                fdt_increase_size
 .text.fdt_del_node_and_alias
                0x000000008201bf60       0x5c common/built-in.o
                0x000000008201bf60                fdt_del_node_and_alias
 .text.fdt_translate_address
                0x000000008201bfbc      0x290 common/built-in.o
                0x000000008201bfbc                fdt_translate_address
 .text.fdt_node_offset_by_compat_reg
                0x000000008201c24c       0xa0 common/built-in.o
                0x000000008201c24c                fdt_node_offset_by_compat_reg
 .text.fdt_alloc_phandle
                0x000000008201c2ec       0x6c common/built-in.o
                0x000000008201c2ec                fdt_alloc_phandle
 .text.fdt_set_phandle
                0x000000008201c358       0x6c common/built-in.o
                0x000000008201c358                fdt_set_phandle
 .text.fdt_create_phandle
                0x000000008201c3c4       0x78 common/built-in.o
                0x000000008201c3c4                fdt_create_phandle
 .text.fdt_set_node_status
                0x000000008201c43c       0xd8 common/built-in.o
                0x000000008201c43c                fdt_set_node_status
 .text.miiphy_get_dev_by_name
                0x000000008201c514       0x68 common/built-in.o
                0x000000008201c514                miiphy_get_dev_by_name
 .text.miiphy_init
                0x000000008201c57c       0x1c common/built-in.o
                0x000000008201c57c                miiphy_init
 .text.mdio_alloc
                0x000000008201c598       0x3c common/built-in.o
                0x000000008201c598                mdio_alloc
 .text.mdio_register
                0x000000008201c5d4       0x8c common/built-in.o
                0x000000008201c5d4                mdio_register
 .text.mdio_list_devices
                0x000000008201c660       0xc4 common/built-in.o
                0x000000008201c660                mdio_list_devices
 .text.miiphy_set_current_dev
                0x000000008201c724       0x48 common/built-in.o
                0x000000008201c724                miiphy_set_current_dev
 .text.miiphy_get_active_dev
                0x000000008201c76c       0x60 common/built-in.o
 .text.mdio_get_current_dev
                0x000000008201c7cc        0xc common/built-in.o
                0x000000008201c7cc                mdio_get_current_dev
 .text.mdio_phydev_for_ethname
                0x000000008201c7d8       0x9c common/built-in.o
                0x000000008201c7d8                mdio_phydev_for_ethname
 .text.miiphy_get_current_dev
                0x000000008201c874       0x18 common/built-in.o
                0x000000008201c874                miiphy_get_current_dev
 .text.miiphy_read
                0x000000008201c88c       0x5c common/built-in.o
                0x000000008201c88c                miiphy_read
 .text.miiphy_write
                0x000000008201c8e8       0x5c common/built-in.o
                0x000000008201c8e8                miiphy_write
 .text.miiphy_listdev
                0x000000008201c944       0x90 common/built-in.o
                0x000000008201c944                miiphy_listdev
 .text.miiphy_info
                0x000000008201c9d4       0xa0 common/built-in.o
                0x000000008201c9d4                miiphy_info
 .text.miiphy_is_1000base_x
                0x000000008201ca74       0x40 common/built-in.o
                0x000000008201ca74                miiphy_is_1000base_x
 .text.miiphy_speed
                0x000000008201cab4      0x11c common/built-in.o
                0x000000008201cab4                miiphy_speed
 .text.miiphy_duplex
                0x000000008201cbd0      0x140 common/built-in.o
                0x000000008201cbd0                miiphy_duplex
 .text.usb_set_maxpacket_ep
                0x000000008201cd10       0x84 common/built-in.o
 .text.usb_control_msg
                0x000000008201cd94       0xdc common/built-in.o
                0x000000008201cd94                usb_control_msg
 .text.usb_get_descriptor
                0x000000008201ce70       0x5c common/built-in.o
 .text.get_descriptor_len
                0x000000008201cecc       0xa4 common/built-in.o
 .text.usb_setup_descriptor
                0x000000008201cf70       0xec common/built-in.o
 .text.usb_get_string
                0x000000008201d05c       0xa4 common/built-in.o
 .text.usb_string_sub
                0x000000008201d100      0x114 common/built-in.o
 .text.usb_bulk_msg
                0x000000008201d214       0x80 common/built-in.o
                0x000000008201d214                usb_bulk_msg
 .text.usb_maxpacket
                0x000000008201d294       0x1c common/built-in.o
                0x000000008201d294                usb_maxpacket
 .text.usb_clear_halt
                0x000000008201d2b0       0xa0 common/built-in.o
                0x000000008201d2b0                usb_clear_halt
 .text.usb_get_configuration_len
                0x000000008201d350       0x78 common/built-in.o
                0x000000008201d350                usb_get_configuration_len
 .text.usb_get_configuration_no
                0x000000008201d3c8       0x40 common/built-in.o
                0x000000008201d3c8                usb_get_configuration_no
 .text.usb_set_interface
                0x000000008201d408       0xbc common/built-in.o
                0x000000008201d408                usb_set_interface
 .text.usb_string
                0x000000008201d4c4      0x110 common/built-in.o
                0x000000008201d4c4                usb_string
 .text.usb_select_config
                0x000000008201d5d4      0x4a4 common/built-in.o
                0x000000008201d5d4                usb_select_config
 .text.usb_setup_device
                0x000000008201da78      0x114 common/built-in.o
                0x000000008201da78                usb_setup_device
 .text.usb_device_has_child_on_port
                0x000000008201db8c        0x8 common/built-in.o
                0x000000008201db8c                usb_device_has_child_on_port
 .text.usb_set_port_feature
                0x000000008201db94       0x4c common/built-in.o
 .text.usb_clear_port_feature
                0x000000008201dbe0       0x4c common/built-in.o
 .text.usb_get_hub_descriptor
                0x000000008201dc2c       0x64 common/built-in.o
 .text.usb_hub_reset_devices
                0x000000008201dc90        0x4 common/built-in.o
                0x000000008201dc90                usb_hub_reset_devices
 .text.usb_hub_is_root_hub
                0x000000008201dc94       0x20 common/built-in.o
                0x000000008201dc94                usb_hub_is_root_hub
 .text.usb_get_port_status
                0x000000008201dcb4       0xc8 common/built-in.o
                0x000000008201dcb4                usb_get_port_status
 .text.usb_hub_port_connect_change
                0x000000008201dd7c      0x180 common/built-in.o
                0x000000008201dd7c                usb_hub_port_connect_change
 .text.usb_hub_configure
                0x000000008201defc      0x5a0 common/built-in.o
 .text.usb_hub_scan
                0x000000008201e49c       0x14 common/built-in.o
                0x000000008201e49c                usb_hub_scan
 .text.usb_hub_post_probe
                0x000000008201e4b0        0x4 common/built-in.o
 .text.usb_stor_irq
                0x000000008201e4b4       0x18 common/built-in.o
 .text.usb_stor_BBB_reset
                0x000000008201e4cc       0xec common/built-in.o
 .text.usb_stor_CB_reset
                0x000000008201e5b8       0xd4 common/built-in.o
 .text.usb_stor_BBB_clear_endpt_stall.isra.0
                0x000000008201e68c       0x4c common/built-in.o
 .text.usb_stor_BBB_transport
                0x000000008201e6d8      0x244 common/built-in.o
 .text.usb_stor_CB_comdat
                0x000000008201e91c      0x1ec common/built-in.o
 .text.usb_stor_CBI_get_status.isra.2
                0x000000008201eb08       0xd0 common/built-in.o
 .text.usb_stor_CB_transport
                0x000000008201ebd8      0x1f4 common/built-in.o
 .text.usb_request_sense.constprop.11
                0x000000008201edcc       0x8c common/built-in.o
 .text.usb_stor_read
                0x000000008201ee58      0x180 common/built-in.o
 .text.usb_stor_write
                0x000000008201efd8      0x180 common/built-in.o
 .text.usb_stor_info
                0x000000008201f158       0x88 common/built-in.o
                0x000000008201f158                usb_stor_info
 .text.usb_stor_reset
                0x000000008201f1e0        0xc common/built-in.o
                0x000000008201f1e0                usb_stor_reset
 .text.usb_stor_scan
                0x000000008201f1ec       0x4c common/built-in.o
                0x000000008201f1ec                usb_stor_scan
 .text.usb_storage_probe
                0x000000008201f238      0x268 common/built-in.o
                0x000000008201f238                usb_storage_probe
 .text.usb_stor_get_info
                0x000000008201f4a0      0x2f0 common/built-in.o
                0x000000008201f4a0                usb_stor_get_info
 .text.usb_mass_storage_probe
                0x000000008201f790      0x18c common/built-in.o
 .text.menu_display_statusline
                0x000000008201f91c        0x4 common/built-in.o
                0x000000008201f91c                menu_display_statusline
 .text.menu_default_set
                0x000000008201f920       0x94 common/built-in.o
                0x000000008201f920                menu_default_set
 .text.menu_get_choice
                0x000000008201f9b4      0x1e4 common/built-in.o
                0x000000008201f9b4                menu_get_choice
 .text.menu_item_add
                0x000000008201fb98       0xd8 common/built-in.o
                0x000000008201fb98                menu_item_add
 .text.menu_create
                0x000000008201fc70       0xa4 common/built-in.o
                0x000000008201fc70                menu_create
 .text.menu_destroy
                0x000000008201fd14       0x80 common/built-in.o
                0x000000008201fd14                menu_destroy
 .text.delete_char.part.0
                0x000000008201fd94       0xfc common/built-in.o
 .text.cread_add_char
                0x000000008201fe90      0x100 common/built-in.o
 .text.cli_readline_into_buffer
                0x000000008201ff90      0x92c common/built-in.o
                0x000000008201ff90                cli_readline_into_buffer
 .text.cli_readline
                0x00000000820208bc       0x14 common/built-in.o
                0x00000000820208bc                cli_readline
 .text.cli_simple_process_macros
                0x00000000820208d0      0x228 common/built-in.o
                0x00000000820208d0                cli_simple_process_macros
 .text.crc16    0x0000000082020af8       0x44 common/built-in.o
 .text.ddr4_spd_check
                0x0000000082020b3c       0x80 common/built-in.o
                0x0000000082020b3c                ddr4_spd_check
 .text.hwconfig_parse
                0x0000000082020bbc      0x134 common/built-in.o
 .text.__hwconfig
                0x0000000082020cf0      0x104 common/built-in.o
 .text.hwconfig_arg_cmp_f
                0x0000000082020df4       0x60 common/built-in.o
                0x0000000082020df4                hwconfig_arg_cmp_f
 .text.hwconfig_sub_f
                0x0000000082020e54       0x54 common/built-in.o
                0x0000000082020e54                hwconfig_sub_f
 .text.hwconfig_subarg_f
                0x0000000082020ea8       0x4c common/built-in.o
                0x0000000082020ea8                hwconfig_subarg_f
 .text.hwconfig_subarg_cmp_f
                0x0000000082020ef4       0x60 common/built-in.o
                0x0000000082020ef4                hwconfig_subarg_cmp_f
 .text.console_setfile
                0x0000000082020f54       0xbc common/built-in.o
 .text.fgetc.part.0
                0x0000000082021010       0x3c common/built-in.o
 .text.getc     0x000000008202104c       0x24 common/built-in.o
                0x000000008202104c                getc
 .text.ftstc    0x0000000082021070       0x24 common/built-in.o
                0x0000000082021070                ftstc
 .text.tstc     0x0000000082021094       0x24 common/built-in.o
                0x0000000082021094                tstc
 .text.fputc    0x00000000820210b8       0x24 common/built-in.o
                0x00000000820210b8                fputc
 .text.putc     0x00000000820210dc       0x2c common/built-in.o
                0x00000000820210dc                putc
 .text.fputs    0x0000000082021108       0x20 common/built-in.o
                0x0000000082021108                fputs
 .text.puts     0x0000000082021128       0x28 common/built-in.o
                0x0000000082021128                puts
 .text.ctrlc    0x0000000082021150       0x58 common/built-in.o
                0x0000000082021150                ctrlc
 .text.confirm_yesno
                0x00000000820211a8       0xd4 common/built-in.o
                0x00000000820211a8                confirm_yesno
 .text.disable_ctrlc
                0x000000008202127c       0x14 common/built-in.o
                0x000000008202127c                disable_ctrlc
 .text.had_ctrlc
                0x0000000082021290        0xc common/built-in.o
                0x0000000082021290                had_ctrlc
 .text.clear_ctrlc
                0x000000008202129c        0xc common/built-in.o
                0x000000008202129c                clear_ctrlc
 .text.search_device
                0x00000000820212a8       0x34 common/built-in.o
                0x00000000820212a8                search_device
 .text.console_assign
                0x00000000820212dc       0x68 common/built-in.o
                0x00000000820212dc                console_assign
 .text.on_console
                0x0000000082021344       0xc0 common/built-in.o
 .text.console_init_f
                0x0000000082021404       0x10 common/built-in.o
                0x0000000082021404                console_init_f
 .text.stdio_print_current_devices
                0x0000000082021414       0xc0 common/built-in.o
                0x0000000082021414                stdio_print_current_devices
 .text.console_init_r
                0x00000000820214d4       0xe0 common/built-in.o
                0x00000000820214d4                console_init_r
 .text.sbrk     0x00000000820215b4       0x74 common/built-in.o
                0x00000000820215b4                sbrk
 .text.mem_malloc_init
                0x0000000082021628       0x28 common/built-in.o
                0x0000000082021628                mem_malloc_init
 .text.malloc_trim
                0x0000000082021650       0xd8 common/built-in.o
                0x0000000082021650                malloc_trim
 .text.free     0x0000000082021728      0x22c common/built-in.o
                0x0000000082021728                free
 .text.malloc   0x0000000082021954      0x654 common/built-in.o
                0x0000000082021954                malloc
 .text.calloc   0x0000000082021fa8      0x10c common/built-in.o
                0x0000000082021fa8                calloc
 .text.realloc  0x00000000820220b4      0x468 common/built-in.o
                0x00000000820220b4                realloc
 .text.memalign
                0x000000008202251c      0x1c0 common/built-in.o
                0x000000008202251c                memalign
 .text.initf_malloc
                0x00000000820226dc       0x18 common/built-in.o
                0x00000000820226dc                initf_malloc
 .text.alloc_simple
                0x00000000820226f4       0x54 common/built-in.o
 .text.malloc_simple
                0x0000000082022748        0x8 common/built-in.o
                0x0000000082022748                malloc_simple
 .text.on_loadaddr
                0x0000000082022750       0x40 common/built-in.o
 .text.image_check_hcrc
                0x0000000082022790       0x50 common/built-in.o
                0x0000000082022790                image_check_hcrc
 .text.image_check_dcrc
                0x00000000820227e0       0x44 common/built-in.o
                0x00000000820227e0                image_check_dcrc
 .text.image_multi_count
                0x0000000082022824       0x20 common/built-in.o
                0x0000000082022824                image_multi_count
 .text.image_multi_getimg
                0x0000000082022844       0x88 common/built-in.o
                0x0000000082022844                image_multi_getimg
 .text.env_get_bootm_low
                0x00000000820228cc       0x34 common/built-in.o
                0x00000000820228cc                env_get_bootm_low
 .text.env_get_bootm_size
                0x0000000082022900       0x78 common/built-in.o
                0x0000000082022900                env_get_bootm_size
 .text.env_get_bootm_mapsize
                0x0000000082022978       0x30 common/built-in.o
                0x0000000082022978                env_get_bootm_mapsize
 .text.memmove_wd
                0x00000000820229a8       0x10 common/built-in.o
                0x00000000820229a8                memmove_wd
 .text.genimg_print_size
                0x00000000820229b8       0x38 common/built-in.o
                0x00000000820229b8                genimg_print_size
 .text.get_table_entry
                0x00000000820229f0       0x20 common/built-in.o
                0x00000000820229f0                get_table_entry
 .text.get_table_entry_name
                0x0000000082022a10       0x28 common/built-in.o
                0x0000000082022a10                get_table_entry_name
 .text.genimg_get_os_name
                0x0000000082022a38       0x18 common/built-in.o
                0x0000000082022a38                genimg_get_os_name
 .text.genimg_get_arch_name
                0x0000000082022a50       0x18 common/built-in.o
                0x0000000082022a50                genimg_get_arch_name
 .text.genimg_get_type_name
                0x0000000082022a68       0x18 common/built-in.o
                0x0000000082022a68                genimg_get_type_name
 .text.genimg_get_comp_name
                0x0000000082022a80       0x18 common/built-in.o
                0x0000000082022a80                genimg_get_comp_name
 .text.image_print_contents
                0x0000000082022a98      0x1b8 common/built-in.o
                0x0000000082022a98                image_print_contents
 .text.get_table_entry_id
                0x0000000082022c50       0x50 common/built-in.o
                0x0000000082022c50                get_table_entry_id
 .text.genimg_get_os_id
                0x0000000082022ca0       0x18 common/built-in.o
                0x0000000082022ca0                genimg_get_os_id
 .text.genimg_get_arch_id
                0x0000000082022cb8       0x18 common/built-in.o
                0x0000000082022cb8                genimg_get_arch_id
 .text.genimg_get_type_id
                0x0000000082022cd0       0x18 common/built-in.o
                0x0000000082022cd0                genimg_get_type_id
 .text.genimg_get_comp_id
                0x0000000082022ce8       0x18 common/built-in.o
                0x0000000082022ce8                genimg_get_comp_id
 .text.genimg_get_kernel_addr_fit
                0x0000000082022d00       0x7c common/built-in.o
                0x0000000082022d00                genimg_get_kernel_addr_fit
 .text.genimg_get_kernel_addr
                0x0000000082022d7c       0x24 common/built-in.o
                0x0000000082022d7c                genimg_get_kernel_addr
 .text.genimg_get_format
                0x0000000082022da0       0x3c common/built-in.o
                0x0000000082022da0                genimg_get_format
 .text.genimg_has_config
                0x0000000082022ddc       0x10 common/built-in.o
                0x0000000082022ddc                genimg_has_config
 .text.boot_get_ramdisk
                0x0000000082022dec      0x364 common/built-in.o
                0x0000000082022dec                boot_get_ramdisk
 .text.boot_ramdisk_high
                0x0000000082023150      0x148 common/built-in.o
                0x0000000082023150                boot_ramdisk_high
 .text.boot_get_setup
                0x0000000082023298        0x4 common/built-in.o
                0x0000000082023298                boot_get_setup
 .text.boot_get_loadable
                0x000000008202329c      0x190 common/built-in.o
                0x000000008202329c                boot_get_loadable
 .text.image_setup_linux
                0x000000008202342c       0x6c common/built-in.o
                0x000000008202342c                image_setup_linux
 .text.fdt_error
                0x0000000082023498       0x38 common/built-in.o
 .text.boot_fdt_reserve_region
                0x00000000820234d0       0x50 common/built-in.o
 .text.boot_fdt_add_mem_rsv_regions
                0x0000000082023520       0xf4 common/built-in.o
                0x0000000082023520                boot_fdt_add_mem_rsv_regions
 .text.boot_relocate_fdt
                0x0000000082023614      0x1b8 common/built-in.o
                0x0000000082023614                boot_relocate_fdt
 .text.boot_get_fdt
                0x00000000820237cc      0x3a8 common/built-in.o
                0x00000000820237cc                boot_get_fdt
 .text.ft_verify_fdt
                0x0000000082023b74        0x8 common/built-in.o
                0x0000000082023b74                ft_verify_fdt
 .text.image_setup_libfdt
                0x0000000082023b7c      0x148 common/built-in.o
                0x0000000082023b7c                image_setup_libfdt
 .text.fit_image_get_address
                0x0000000082023cc4       0x84 common/built-in.o
 .text.fit_parse_conf
                0x0000000082023d48       0x78 common/built-in.o
                0x0000000082023d48                fit_parse_conf
 .text.fit_parse_subimage
                0x0000000082023dc0       0x78 common/built-in.o
                0x0000000082023dc0                fit_parse_subimage
 .text.fit_get_desc
                0x0000000082023e38       0x38 common/built-in.o
                0x0000000082023e38                fit_get_desc
 .text.fit_image_get_node
                0x0000000082023e70       0x48 common/built-in.o
                0x0000000082023e70                fit_image_get_node
 .text.fit_image_get_os
                0x0000000082023eb8       0x4c common/built-in.o
                0x0000000082023eb8                fit_image_get_os
 .text.fit_image_get_arch
                0x0000000082023f04       0x4c common/built-in.o
                0x0000000082023f04                fit_image_get_arch
 .text.fit_image_get_type
                0x0000000082023f50       0x4c common/built-in.o
                0x0000000082023f50                fit_image_get_type
 .text.fit_image_get_comp
                0x0000000082023f9c       0x4c common/built-in.o
                0x0000000082023f9c                fit_image_get_comp
 .text.fit_image_get_load
                0x0000000082023fe8       0x10 common/built-in.o
                0x0000000082023fe8                fit_image_get_load
 .text.fit_image_get_entry
                0x0000000082023ff8       0x10 common/built-in.o
                0x0000000082023ff8                fit_image_get_entry
 .text.fit_image_get_data
                0x0000000082024008       0x50 common/built-in.o
                0x0000000082024008                fit_image_get_data
 .text.fit_image_get_data_offset
                0x0000000082024058       0x48 common/built-in.o
                0x0000000082024058                fit_image_get_data_offset
 .text.fit_image_get_data_position
                0x00000000820240a0       0x48 common/built-in.o
                0x00000000820240a0                fit_image_get_data_position
 .text.fit_image_get_data_size
                0x00000000820240e8       0x48 common/built-in.o
                0x00000000820240e8                fit_image_get_data_size
 .text.fit_image_get_data_and_size
                0x0000000082024130       0xa8 common/built-in.o
                0x0000000082024130                fit_image_get_data_and_size
 .text.fit_image_hash_get_algo
                0x00000000820241d8       0x38 common/built-in.o
                0x00000000820241d8                fit_image_hash_get_algo
 .text.fit_image_hash_get_value
                0x0000000082024210       0x50 common/built-in.o
                0x0000000082024210                fit_image_hash_get_value
 .text.fit_image_print_data
                0x0000000082024260      0x18c common/built-in.o
 .text.fit_image_print_verification_data
                0x00000000820243ec       0xbc common/built-in.o
 .text.fit_image_print
                0x00000000820244a8      0x300 common/built-in.o
                0x00000000820244a8                fit_image_print
 .text.fit_print_contents
                0x00000000820247a8      0x474 common/built-in.o
                0x00000000820247a8                fit_print_contents
 .text.fit_get_end
                0x0000000082024c1c       0x10 common/built-in.o
                0x0000000082024c1c                fit_get_end
 .text.calculate_hash
                0x0000000082024c2c      0x11c common/built-in.o
                0x0000000082024c2c                calculate_hash
 .text.fit_image_verify_with_data
                0x0000000082024d48      0x1f4 common/built-in.o
                0x0000000082024d48                fit_image_verify_with_data
 .text.fit_image_verify
                0x0000000082024f3c       0x90 common/built-in.o
                0x0000000082024f3c                fit_image_verify
 .text.fit_all_image_verify
                0x0000000082024fcc      0x114 common/built-in.o
                0x0000000082024fcc                fit_all_image_verify
 .text.fit_image_check_os
                0x00000000820250e0       0x3c common/built-in.o
                0x00000000820250e0                fit_image_check_os
 .text.fit_image_check_arch
                0x000000008202511c       0x64 common/built-in.o
                0x000000008202511c                fit_image_check_arch
 .text.fit_image_check_type
                0x0000000082025180       0x3c common/built-in.o
                0x0000000082025180                fit_image_check_type
 .text.fit_image_check_comp
                0x00000000820251bc       0x3c common/built-in.o
                0x00000000820251bc                fit_image_check_comp
 .text.fit_check_format
                0x00000000820251f8       0x54 common/built-in.o
                0x00000000820251f8                fit_check_format
 .text.fit_conf_get_node
                0x000000008202524c       0xe0 common/built-in.o
                0x000000008202524c                fit_conf_get_node
 .text.fit_conf_get_prop_node_index
                0x000000008202532c       0x3c common/built-in.o
                0x000000008202532c                fit_conf_get_prop_node_index
 .text.fit_conf_get_prop_node
                0x0000000082025368        0x8 common/built-in.o
                0x0000000082025368                fit_conf_get_prop_node
 .text.fit_get_node_from_config
                0x0000000082025370       0x54 common/built-in.o
                0x0000000082025370                fit_get_node_from_config
 .text.fit_image_load
                0x00000000820253c4      0x580 common/built-in.o
                0x00000000820253c4                fit_image_load
 .text.boot_get_setup_fit
                0x0000000082025944       0x78 common/built-in.o
                0x0000000082025944                boot_get_setup_fit
 .text.boot_get_fdt_fit
                0x00000000820259bc      0x180 common/built-in.o
                0x00000000820259bc                boot_get_fdt_fit
 .text.stdio_serial_tstc
                0x0000000082025b3c        0x4 common/built-in.o
 .text.stdio_serial_getc
                0x0000000082025b40        0x4 common/built-in.o
 .text.stdio_serial_puts
                0x0000000082025b44        0x8 common/built-in.o
 .text.stdio_serial_putc
                0x0000000082025b4c        0x8 common/built-in.o
 .text.stdio_get_list
                0x0000000082025b54       0x10 common/built-in.o
                0x0000000082025b54                stdio_get_list
 .text.stdio_get_by_name
                0x0000000082025b64       0x6c common/built-in.o
                0x0000000082025b64                stdio_get_by_name
 .text.stdio_clone
                0x0000000082025bd0       0x4c common/built-in.o
                0x0000000082025bd0                stdio_clone
 .text.stdio_register_dev
                0x0000000082025c1c       0x58 common/built-in.o
                0x0000000082025c1c                stdio_register_dev
 .text.stdio_register
                0x0000000082025c74        0x8 common/built-in.o
                0x0000000082025c74                stdio_register
 .text.stdio_init_tables
                0x0000000082025c7c       0x18 common/built-in.o
                0x0000000082025c7c                stdio_init_tables
 .text.stdio_add_devices
                0x0000000082025c94       0x7c common/built-in.o
                0x0000000082025c94                stdio_add_devices
 .text.run_command
                0x0000000082025d10       0x14 common/built-in.o
                0x0000000082025d10                run_command
 .text.run_command_list
                0x0000000082025d24       0x90 common/built-in.o
                0x0000000082025d24                run_command_list
 .text.do_run   0x0000000082025db4       0x80 common/built-in.o
                0x0000000082025db4                do_run
 .text.cli_process_fdt
                0x0000000082025e34       0x50 common/built-in.o
                0x0000000082025e34                cli_process_fdt
 .text.cli_secure_boot_cmd
                0x0000000082025e84       0x74 common/built-in.o
                0x0000000082025e84                cli_secure_boot_cmd
 .text.cli_loop
                0x0000000082025ef8       0x10 common/built-in.o
                0x0000000082025ef8                cli_loop
 .text.cli_init
                0x0000000082025f08        0x4 common/built-in.o
                0x0000000082025f08                cli_init
 .text.find_cmd_tbl
                0x0000000082025f0c       0xc0 common/built-in.o
                0x0000000082025f0c                find_cmd_tbl
 .text.find_cmd
                0x0000000082025fcc       0x30 common/built-in.o
                0x0000000082025fcc                find_cmd
 .text.cmd_usage
                0x0000000082025ffc       0x68 common/built-in.o
                0x0000000082025ffc                cmd_usage
 .text._do_help
                0x0000000082026064      0x194 common/built-in.o
                0x0000000082026064                _do_help
 .text.var_complete
                0x00000000820261f8       0x80 common/built-in.o
                0x00000000820261f8                var_complete
 .text.complete_subcmdv
                0x0000000082026278      0x1b0 common/built-in.o
                0x0000000082026278                complete_subcmdv
 .text.cmd_auto_complete
                0x0000000082026428      0x400 common/built-in.o
                0x0000000082026428                cmd_auto_complete
 .text.cmd_get_data_size
                0x0000000082026828       0x6c common/built-in.o
                0x0000000082026828                cmd_get_data_size
 .text.cmd_always_repeatable
                0x0000000082026894       0x10 common/built-in.o
                0x0000000082026894                cmd_always_repeatable
 .text.cmd_never_repeatable
                0x00000000820268a4        0xc common/built-in.o
                0x00000000820268a4                cmd_never_repeatable
 .text.cmd_process
                0x00000000820268b0      0x108 common/built-in.o
                0x00000000820268b0                cmd_process
 .text.hex1_bin
                0x00000000820269b8       0x44 common/built-in.o
 .text.hex2_bin
                0x00000000820269fc       0x40 common/built-in.o
 .text.srec_decode
                0x0000000082026a3c      0x228 common/built-in.o
                0x0000000082026a3c                srec_decode
 .text.CYGACC_COMM_IF_GETC_TIMEOUT.isra.0
                0x0000000082026c64       0x54 common/built-in.o
 .text.xyzModem_flush
                0x0000000082026cb8       0x1c common/built-in.o
 .text.xyzModem_get_hdr
                0x0000000082026cd4      0x21c common/built-in.o
 .text.xyzModem_stream_open
                0x0000000082026ef0      0x260 common/built-in.o
                0x0000000082026ef0                xyzModem_stream_open
 .text.xyzModem_stream_read
                0x0000000082027150      0x270 common/built-in.o
                0x0000000082027150                xyzModem_stream_read
 .text.xyzModem_stream_close
                0x00000000820273c0       0x3c common/built-in.o
                0x00000000820273c0                xyzModem_stream_close
 .text.xyzModem_stream_terminate
                0x00000000820273fc       0xa4 common/built-in.o
                0x00000000820273fc                xyzModem_stream_terminate
 .text.xyzModem_error
                0x00000000820274a0       0x28 common/built-in.o
                0x00000000820274a0                xyzModem_error
 .text.part_driver_lookup_type
                0x00000000820274c8       0xa8 disk/built-in.o
 .text.blk_get_dev
                0x0000000082027570       0x3c disk/built-in.o
                0x0000000082027570                blk_get_dev
 .text.dev_print
                0x00000000820275ac      0x1f0 disk/built-in.o
                0x00000000820275ac                dev_print
 .text.part_init
                0x000000008202779c       0x88 disk/built-in.o
                0x000000008202779c                part_init
 .text.part_print
                0x0000000082027824      0x138 disk/built-in.o
                0x0000000082027824                part_print
 .text.part_get_info
                0x000000008202795c       0x68 disk/built-in.o
                0x000000008202795c                part_get_info
 .text.part_get_info_whole_disk
                0x00000000820279c4       0x5c disk/built-in.o
                0x00000000820279c4                part_get_info_whole_disk
 .text.blk_get_device_by_str
                0x0000000082027a20      0x144 disk/built-in.o
                0x0000000082027a20                blk_get_device_by_str
 .text.blk_get_device_part_str
                0x0000000082027b64      0x364 disk/built-in.o
                0x0000000082027b64                blk_get_device_part_str
 .text.part_get_info_by_name_type
                0x0000000082027ec8       0x8c disk/built-in.o
                0x0000000082027ec8                part_get_info_by_name_type
 .text.part_get_info_by_name
                0x0000000082027f54        0x8 disk/built-in.o
                0x0000000082027f54                part_get_info_by_name
 .text.part_set_generic_name
                0x0000000082027f5c       0x48 disk/built-in.o
                0x0000000082027f5c                part_set_generic_name
 .text.test_block_type
                0x0000000082027fa4       0x90 disk/built-in.o
 .text.print_partition_extended
                0x0000000082028034      0x264 disk/built-in.o
 .text.part_print_dos
                0x0000000082028298       0x3c disk/built-in.o
                0x0000000082028298                part_print_dos
 .text.part_test_dos
                0x00000000820282d4       0x78 disk/built-in.o
 .text.part_get_info_extended
                0x000000008202834c      0x2c4 disk/built-in.o
 .text.part_get_info_dos
                0x0000000082028610       0x1c disk/built-in.o
                0x0000000082028610                part_get_info_dos
 .text.iso_dread
                0x000000008202862c       0x48 disk/built-in.o
                0x000000008202862c                iso_dread
 .text.part_get_info_iso_verb
                0x0000000082028674      0x37c disk/built-in.o
                0x0000000082028674                part_get_info_iso_verb
 .text.part_test_iso
                0x00000000820289f0       0x20 disk/built-in.o
 .text.part_print_iso
                0x0000000082028a10       0xa4 disk/built-in.o
 .text.part_get_info_iso
                0x0000000082028ab4        0x8 disk/built-in.o
 .text.print_efiname
                0x0000000082028abc       0x5c disk/built-in.o
 .text.part_test_efi
                0x0000000082028b18       0xb4 disk/built-in.o
 .text.validate_gpt_entries
                0x0000000082028bcc       0xa8 disk/built-in.o
 .text.validate_gpt_header
                0x0000000082028c74      0x230 disk/built-in.o
 .text.is_gpt_valid
                0x0000000082028ea4      0x28c disk/built-in.o
 .text.is_pte_valid
                0x0000000082029130       0x64 disk/built-in.o
 .text.part_print_efi
                0x0000000082029194      0x278 disk/built-in.o
                0x0000000082029194                part_print_efi
 .text.part_get_info_efi
                0x000000008202940c      0x240 disk/built-in.o
                0x000000008202940c                part_get_info_efi
 .text.get_disk_guid
                0x000000008202964c       0xec disk/built-in.o
                0x000000008202964c                get_disk_guid
 .text.write_gpt_table
                0x0000000082029738      0x4fc disk/built-in.o
                0x0000000082029738                write_gpt_table
 .text.gpt_fill_pte
                0x0000000082029c34      0x3a4 disk/built-in.o
                0x0000000082029c34                gpt_fill_pte
 .text.gpt_fill_header
                0x0000000082029fd8      0x250 disk/built-in.o
                0x0000000082029fd8                gpt_fill_header
 .text.gpt_restore
                0x000000008202a228      0x150 disk/built-in.o
                0x000000008202a228                gpt_restore
 .text.gpt_verify_headers
                0x000000008202a378       0x98 disk/built-in.o
                0x000000008202a378                gpt_verify_headers
 .text.gpt_verify_partitions
                0x000000008202a410      0x1f4 disk/built-in.o
                0x000000008202a410                gpt_verify_partitions
 .text.device_bind_common.isra.0
                0x000000008202a604      0x310 drivers/built-in.o
 .text.alloc_priv
                0x000000008202a914       0x68 drivers/built-in.o
 .text.device_bind_with_driver_data
                0x000000008202a97c       0x14 drivers/built-in.o
                0x000000008202a97c                device_bind_with_driver_data
 .text.device_bind
                0x000000008202a990       0x10 drivers/built-in.o
                0x000000008202a990                device_bind
 .text.device_bind_ofnode
                0x000000008202a9a0       0x10 drivers/built-in.o
                0x000000008202a9a0                device_bind_ofnode
 .text.device_bind_by_name
                0x000000008202a9b0       0x7c drivers/built-in.o
                0x000000008202a9b0                device_bind_by_name
 .text.device_probe
                0x000000008202aa2c      0x1f4 drivers/built-in.o
                0x000000008202aa2c                device_probe
 .text.dev_get_platdata
                0x000000008202ac20       0x34 drivers/built-in.o
                0x000000008202ac20                dev_get_platdata
 .text.dev_get_parent_platdata
                0x000000008202ac54       0x34 drivers/built-in.o
                0x000000008202ac54                dev_get_parent_platdata
 .text.dev_get_uclass_platdata
                0x000000008202ac88       0x34 drivers/built-in.o
                0x000000008202ac88                dev_get_uclass_platdata
 .text.dev_get_priv
                0x000000008202acbc       0x34 drivers/built-in.o
                0x000000008202acbc                dev_get_priv
 .text.dev_get_uclass_priv
                0x000000008202acf0       0x34 drivers/built-in.o
                0x000000008202acf0                dev_get_uclass_priv
 .text.dev_get_parent_priv
                0x000000008202ad24       0x34 drivers/built-in.o
                0x000000008202ad24                dev_get_parent_priv
 .text.device_find_first_child
                0x000000008202ad58       0x20 drivers/built-in.o
                0x000000008202ad58                device_find_first_child
 .text.device_find_next_child
                0x000000008202ad78       0x28 drivers/built-in.o
                0x000000008202ad78                device_find_next_child
 .text.dev_get_parent
                0x000000008202ada0        0x8 drivers/built-in.o
                0x000000008202ada0                dev_get_parent
 .text.dev_get_driver_data
                0x000000008202ada8        0x8 drivers/built-in.o
                0x000000008202ada8                dev_get_driver_data
 .text.device_get_uclass_id
                0x000000008202adb0       0x10 drivers/built-in.o
                0x000000008202adb0                device_get_uclass_id
 .text.device_has_active_children
                0x000000008202adc0       0x3c drivers/built-in.o
                0x000000008202adc0                device_has_active_children
 .text.device_is_last_sibling
                0x000000008202adfc       0x24 drivers/built-in.o
                0x000000008202adfc                device_is_last_sibling
 .text.device_set_name_alloced
                0x000000008202ae20       0x10 drivers/built-in.o
                0x000000008202ae20                device_set_name_alloced
 .text.devfdt_get_addr_index
                0x000000008202ae30       0xec drivers/built-in.o
                0x000000008202ae30                devfdt_get_addr_index
 .text.devfdt_get_addr
                0x000000008202af1c        0x8 drivers/built-in.o
                0x000000008202af1c                devfdt_get_addr
 .text.lists_driver_lookup_name
                0x000000008202af24       0x78 drivers/built-in.o
                0x000000008202af24                lists_driver_lookup_name
 .text.lists_uclass_lookup
                0x000000008202af9c       0x58 drivers/built-in.o
                0x000000008202af9c                lists_uclass_lookup
 .text.lists_bind_drivers
                0x000000008202aff4       0xb0 drivers/built-in.o
                0x000000008202aff4                lists_bind_drivers
 .text.device_bind_driver_to_node
                0x000000008202b0a4       0x68 drivers/built-in.o
                0x000000008202b0a4                device_bind_driver_to_node
 .text.device_bind_driver
                0x000000008202b10c        0xc drivers/built-in.o
                0x000000008202b10c                device_bind_driver
 .text.lists_bind_fdt
                0x000000008202b118      0x1b4 drivers/built-in.o
                0x000000008202b118                lists_bind_fdt
 .text.dm_scan_fdt_node
                0x000000008202b2cc      0x108 drivers/built-in.o
 .text.dm_scan_fdt_ofnode_path
                0x000000008202b3d4       0x48 drivers/built-in.o
 .text.dm_root  0x000000008202b41c       0x30 drivers/built-in.o
                0x000000008202b41c                dm_root
 .text.dm_get_translation_offset
                0x000000008202b44c       0x1c drivers/built-in.o
                0x000000008202b44c                dm_get_translation_offset
 .text.dm_init  0x000000008202b468       0x64 drivers/built-in.o
                0x000000008202b468                dm_init
 .text.dm_remove_devices_flags
                0x000000008202b4cc       0x2c drivers/built-in.o
                0x000000008202b4cc                dm_remove_devices_flags
 .text.dm_scan_platdata
                0x000000008202b4f8       0x34 drivers/built-in.o
                0x000000008202b4f8                dm_scan_platdata
 .text.dm_scan_fdt_dev
                0x000000008202b52c       0x28 drivers/built-in.o
                0x000000008202b52c                dm_scan_fdt_dev
 .text.dm_scan_fdt
                0x000000008202b554       0x18 drivers/built-in.o
                0x000000008202b554                dm_scan_fdt
 .text.dm_extended_scan_fdt
                0x000000008202b56c       0x58 drivers/built-in.o
                0x000000008202b56c                dm_extended_scan_fdt
 .text.dm_scan_other
                0x000000008202b5c4        0x8 drivers/built-in.o
                0x000000008202b5c4                dm_scan_other
 .text.dm_init_and_scan
                0x000000008202b5cc       0x54 drivers/built-in.o
                0x000000008202b5cc                dm_init_and_scan
 .text.uclass_find
                0x000000008202b620       0x48 drivers/built-in.o
                0x000000008202b620                uclass_find
 .text.uclass_get
                0x000000008202b668      0x130 drivers/built-in.o
                0x000000008202b668                uclass_get
 .text.uclass_find_first_device
                0x000000008202b798       0x50 drivers/built-in.o
                0x000000008202b798                uclass_find_first_device
 .text.uclass_find_next_device
                0x000000008202b7e8       0x2c drivers/built-in.o
                0x000000008202b7e8                uclass_find_next_device
 .text.uclass_find_device_by_seq
                0x000000008202b814       0x90 drivers/built-in.o
                0x000000008202b814                uclass_find_device_by_seq
 .text.uclass_get_device_tail
                0x000000008202b8a4       0x40 drivers/built-in.o
                0x000000008202b8a4                uclass_get_device_tail
 .text.uclass_get_device_by_seq
                0x000000008202b8e4       0x68 drivers/built-in.o
                0x000000008202b8e4                uclass_get_device_by_seq
 .text.uclass_first_device
                0x000000008202b94c       0x44 drivers/built-in.o
                0x000000008202b94c                uclass_first_device
 .text.uclass_first_device_err
                0x000000008202b990       0x34 drivers/built-in.o
                0x000000008202b990                uclass_first_device_err
 .text.uclass_next_device
                0x000000008202b9c4       0x44 drivers/built-in.o
                0x000000008202b9c4                uclass_next_device
 .text.uclass_first_device_check
                0x000000008202ba08       0x40 drivers/built-in.o
                0x000000008202ba08                uclass_first_device_check
 .text.uclass_next_device_check
                0x000000008202ba48       0x30 drivers/built-in.o
                0x000000008202ba48                uclass_next_device_check
 .text.uclass_bind_device
                0x000000008202ba78       0x70 drivers/built-in.o
                0x000000008202ba78                uclass_bind_device
 .text.uclass_unbind_device
                0x000000008202bae8       0x4c drivers/built-in.o
                0x000000008202bae8                uclass_unbind_device
 .text.uclass_resolve_seq
                0x000000008202bb34       0xb8 drivers/built-in.o
                0x000000008202bb34                uclass_resolve_seq
 .text.uclass_pre_probe_device
                0x000000008202bbec       0x64 drivers/built-in.o
                0x000000008202bbec                uclass_pre_probe_device
 .text.uclass_post_probe_device
                0x000000008202bc50       0x64 drivers/built-in.o
                0x000000008202bc50                uclass_post_probe_device
 .text.uclass_pre_remove_device
                0x000000008202bcb4       0x1c drivers/built-in.o
                0x000000008202bcb4                uclass_pre_remove_device
 .text.dm_warn  0x000000008202bcd0       0x78 drivers/built-in.o
                0x000000008202bcd0                dm_warn
 .text.dm_ofnode_pre_reloc
                0x000000008202bd48       0x64 drivers/built-in.o
                0x000000008202bd48                dm_ofnode_pre_reloc
 .text.device_unbind
                0x000000008202bdac       0xe8 drivers/built-in.o
                0x000000008202bdac                device_unbind
 .text.device_chld_unbind
                0x000000008202be94       0x78 drivers/built-in.o
                0x000000008202be94                device_chld_unbind
 .text.device_free
                0x000000008202bf0c       0x80 drivers/built-in.o
                0x000000008202bf0c                device_free
 .text.device_remove
                0x000000008202bf8c      0x158 drivers/built-in.o
                0x000000008202bf8c                device_remove
 .text.device_chld_remove
                0x000000008202c0e4       0x78 drivers/built-in.o
                0x000000008202c0e4                device_chld_remove
 .text.simple_bus_post_bind
                0x000000008202c15c       0x60 drivers/built-in.o
 .text.ofnode_read_u32
                0x000000008202c1bc       0x5c drivers/built-in.o
                0x000000008202c1bc                ofnode_read_u32
 .text.ofnode_read_u32_default
                0x000000008202c218       0x24 drivers/built-in.o
                0x000000008202c218                ofnode_read_u32_default
 .text.ofnode_read_u32_array
                0x000000008202c23c       0x1c drivers/built-in.o
                0x000000008202c23c                ofnode_read_u32_array
 .text.ofnode_first_subnode
                0x000000008202c258       0x24 drivers/built-in.o
                0x000000008202c258                ofnode_first_subnode
 .text.ofnode_next_subnode
                0x000000008202c27c       0x24 drivers/built-in.o
                0x000000008202c27c                ofnode_next_subnode
 .text.ofnode_get_name
                0x000000008202c2a0       0x14 drivers/built-in.o
                0x000000008202c2a0                ofnode_get_name
 .text.ofnode_stringlist_search
                0x000000008202c2b4       0x44 drivers/built-in.o
                0x000000008202c2b4                ofnode_stringlist_search
 .text.ofnode_path
                0x000000008202c2f8       0x24 drivers/built-in.o
                0x000000008202c2f8                ofnode_path
 .text.ofnode_get_property
                0x000000008202c31c       0x18 drivers/built-in.o
                0x000000008202c31c                ofnode_get_property
 .text.ofnode_read_bool
                0x000000008202c334       0x20 drivers/built-in.o
                0x000000008202c334                ofnode_read_bool
 .text.ofnode_read_pci_addr
                0x000000008202c354       0xac drivers/built-in.o
                0x000000008202c354                ofnode_read_pci_addr
 .text.ofnode_read_pci_vendev
                0x000000008202c400      0x104 drivers/built-in.o
                0x000000008202c400                ofnode_read_pci_vendev
 .text.ofnode_read_addr_cells
                0x000000008202c504       0x10 drivers/built-in.o
                0x000000008202c504                ofnode_read_addr_cells
 .text.ofnode_read_size_cells
                0x000000008202c514       0x10 drivers/built-in.o
                0x000000008202c514                ofnode_read_size_cells
 .text.ofnode_read_simple_addr_cells
                0x000000008202c524        0x4 drivers/built-in.o
                0x000000008202c524                ofnode_read_simple_addr_cells
 .text.ofnode_read_simple_size_cells
                0x000000008202c528        0x4 drivers/built-in.o
                0x000000008202c528                ofnode_read_simple_size_cells
 .text.ofnode_read_resource
                0x000000008202c52c       0x6c drivers/built-in.o
                0x000000008202c52c                ofnode_read_resource
 .text.ofnode_read_resource_byname
                0x000000008202c598       0x4c drivers/built-in.o
                0x000000008202c598                ofnode_read_resource_byname
 .text.pci_get_bus_max
                0x000000008202c5e4       0x4c drivers/built-in.o
 .text.skip_to_next_device
                0x000000008202c630       0x54 drivers/built-in.o
 .text.pci_uclass_pre_probe
                0x000000008202c684      0x28c drivers/built-in.o
 .text.pci_get_bus
                0x000000008202c910       0x60 drivers/built-in.o
                0x000000008202c910                pci_get_bus
 .text.pci_get_controller
                0x000000008202c970       0x38 drivers/built-in.o
                0x000000008202c970                pci_get_controller
 .text.dm_pci_get_bdf
                0x000000008202c9a8       0x30 drivers/built-in.o
                0x000000008202c9a8                dm_pci_get_bdf
 .text.pci_get_ff
                0x000000008202c9d8       0x1c drivers/built-in.o
                0x000000008202c9d8                pci_get_ff
 .text.pci_bus_find_devfn
                0x000000008202c9f4       0x64 drivers/built-in.o
                0x000000008202c9f4                pci_bus_find_devfn
 .text.dm_pci_bus_find_bdf
                0x000000008202ca58       0x40 drivers/built-in.o
                0x000000008202ca58                dm_pci_bus_find_bdf
 .text.pci_bus_find_devices
                0x000000008202ca98       0xa8 drivers/built-in.o
                0x000000008202ca98                pci_bus_find_devices
 .text.pci_find_device_id
                0x000000008202cb40       0x60 drivers/built-in.o
                0x000000008202cb40                pci_find_device_id
 .text.pci_bus_write_config
                0x000000008202cba0       0x1c drivers/built-in.o
                0x000000008202cba0                pci_bus_write_config
 .text.pci_bridge_write_config
                0x000000008202cbbc        0xc drivers/built-in.o
 .text.pci_write_config
                0x000000008202cbc8       0x58 drivers/built-in.o
                0x000000008202cbc8                pci_write_config
 .text.dm_pci_write_config
                0x000000008202cc20       0x70 drivers/built-in.o
                0x000000008202cc20                dm_pci_write_config
 .text.pci_write_config32
                0x000000008202cc90        0xc drivers/built-in.o
                0x000000008202cc90                pci_write_config32
 .text.pci_write_config16
                0x000000008202cc9c        0xc drivers/built-in.o
                0x000000008202cc9c                pci_write_config16
 .text.dm_pci_write_config8
                0x000000008202cca8        0xc drivers/built-in.o
                0x000000008202cca8                dm_pci_write_config8
 .text.dm_pci_write_config16
                0x000000008202ccb4        0xc drivers/built-in.o
                0x000000008202ccb4                dm_pci_write_config16
 .text.dm_pci_write_config32
                0x000000008202ccc0        0xc drivers/built-in.o
                0x000000008202ccc0                dm_pci_write_config32
 .text.pci_bus_read_config
                0x000000008202cccc       0x1c drivers/built-in.o
                0x000000008202cccc                pci_bus_read_config
 .text.pci_bridge_read_config
                0x000000008202cce8        0xc drivers/built-in.o
 .text.pci_read_config
                0x000000008202ccf4       0x58 drivers/built-in.o
                0x000000008202ccf4                pci_read_config
 .text.dm_pci_read_config
                0x000000008202cd4c       0x70 drivers/built-in.o
                0x000000008202cd4c                dm_pci_read_config
 .text.pci_read_config32
                0x000000008202cdbc       0x34 drivers/built-in.o
                0x000000008202cdbc                pci_read_config32
 .text.pci_read_config16
                0x000000008202cdf0       0x34 drivers/built-in.o
                0x000000008202cdf0                pci_read_config16
 .text.pci_read_config8
                0x000000008202ce24       0x34 drivers/built-in.o
                0x000000008202ce24                pci_read_config8
 .text.dm_pci_read_config8
                0x000000008202ce58       0x34 drivers/built-in.o
                0x000000008202ce58                dm_pci_read_config8
 .text.dm_pci_read_config16
                0x000000008202ce8c       0x34 drivers/built-in.o
                0x000000008202ce8c                dm_pci_read_config16
 .text._dm_pci_find_next_capability
                0x000000008202cec0       0x98 drivers/built-in.o
 .text.dm_pci_read_config32
                0x000000008202cf58       0x34 drivers/built-in.o
                0x000000008202cf58                dm_pci_read_config32
 .text.pci_auto_config_devices
                0x000000008202cf8c       0xb8 drivers/built-in.o
                0x000000008202cf8c                pci_auto_config_devices
 .text.pci_generic_mmap_write_config
                0x000000008202d044       0x8c drivers/built-in.o
                0x000000008202d044                pci_generic_mmap_write_config
 .text.pci_generic_mmap_read_config
                0x000000008202d0d0       0xac drivers/built-in.o
                0x000000008202d0d0                pci_generic_mmap_read_config
 .text.dm_pci_hose_probe_bus
                0x000000008202d17c       0x90 drivers/built-in.o
                0x000000008202d17c                dm_pci_hose_probe_bus
 .text.pci_bind_bus_devices
                0x000000008202d20c      0x3f4 drivers/built-in.o
                0x000000008202d20c                pci_bind_bus_devices
 .text.pci_uclass_post_probe
                0x000000008202d600       0x34 drivers/built-in.o
 .text.pci_get_devfn
                0x000000008202d634       0x44 drivers/built-in.o
                0x000000008202d634                pci_get_devfn
 .text.pci_uclass_child_post_bind
                0x000000008202d678       0x58 drivers/built-in.o
 .text.pci_find_next_device
                0x000000008202d6d0       0x74 drivers/built-in.o
                0x000000008202d6d0                pci_find_next_device
 .text.pci_find_first_device
                0x000000008202d744       0x3c drivers/built-in.o
                0x000000008202d744                pci_find_first_device
 .text.pci_get_regions
                0x000000008202d780      0x108 drivers/built-in.o
                0x000000008202d780                pci_get_regions
 .text.dm_pci_find_capability
                0x000000008202d888       0x70 drivers/built-in.o
                0x000000008202d888                dm_pci_find_capability
 .text.pci_init
                0x000000008202d8f8       0x30 drivers/built-in.o
                0x000000008202d8f8                pci_init
 .text.dm_pciauto_setup_device
                0x000000008202d928      0x340 drivers/built-in.o
                0x000000008202d928                dm_pciauto_setup_device
 .text.dm_pciauto_prescan_setup_bridge
                0x000000008202dc68      0x1d8 drivers/built-in.o
                0x000000008202dc68                dm_pciauto_prescan_setup_bridge
 .text.dm_pciauto_postscan_setup_bridge
                0x000000008202de40      0x124 drivers/built-in.o
                0x000000008202de40                dm_pciauto_postscan_setup_bridge
 .text.dm_pciauto_config_device
                0x000000008202df64       0xd4 drivers/built-in.o
                0x000000008202df64                dm_pciauto_config_device
 .text.pci_find_devices
                0x000000008202e038       0x2c drivers/built-in.o
                0x000000008202e038                pci_find_devices
 .text.pci_bus_to_hose
                0x000000008202e064       0x30 drivers/built-in.o
                0x000000008202e064                pci_bus_to_hose
 .text.pciauto_region_init
                0x000000008202e094       0x18 drivers/built-in.o
                0x000000008202e094                pciauto_region_init
 .text.pciauto_region_align
                0x000000008202e0ac       0x1c drivers/built-in.o
                0x000000008202e0ac                pciauto_region_align
 .text.pciauto_region_allocate
                0x000000008202e0c8       0x50 drivers/built-in.o
                0x000000008202e0c8                pciauto_region_allocate
 .text.pciauto_config_init
                0x000000008202e118       0xe4 drivers/built-in.o
                0x000000008202e118                pciauto_config_init
 .text.pci_class_str
                0x000000008202e1fc      0x164 drivers/built-in.o
                0x000000008202e1fc                pci_class_str
 .text.__pci_hose_bus_to_phys
                0x000000008202e360       0x78 drivers/built-in.o
                0x000000008202e360                __pci_hose_bus_to_phys
 .text.pci_hose_bus_to_phys
                0x000000008202e3d8       0x74 drivers/built-in.o
                0x000000008202e3d8                pci_hose_bus_to_phys
 .text.pci_map_bar
                0x000000008202e44c       0x4c drivers/built-in.o
                0x000000008202e44c                pci_map_bar
 .text.__pci_hose_phys_to_bus
                0x000000008202e498       0x6c drivers/built-in.o
                0x000000008202e498                __pci_hose_phys_to_bus
 .text.pci_hose_phys_to_bus
                0x000000008202e504       0x74 drivers/built-in.o
                0x000000008202e504                pci_hose_phys_to_bus
 .text.ls_pcie_atu_outbound_set
                0x000000008202e578       0x54 drivers/built-in.o
 .text.ls_pcie_atu_inbound_set
                0x000000008202e5cc       0x3c drivers/built-in.o
 .text.ls_pcie_ep_setup_atu
                0x000000008202e608       0xbc drivers/built-in.o
 .text.ls_pcie_write_config
                0x000000008202e6c4       0x1c drivers/built-in.o
 .text.ls_pcie_read_config
                0x000000008202e6e0       0x1c drivers/built-in.o
 .text.ctrl_readl.part.2
                0x000000008202e6fc       0x14 drivers/built-in.o
 .text.ls_pcie_ltssm
                0x000000008202e710       0x7c drivers/built-in.o
 .text.ls_pcie_conf_address
                0x000000008202e78c      0x11c drivers/built-in.o
                0x000000008202e78c                ls_pcie_conf_address
 .text.ls_pcie_probe
                0x000000008202e8a8      0x6d8 drivers/built-in.o
 .text.lut_writel.part.1
                0x000000008202ef80       0x14 drivers/built-in.o
 .text.ft_pci_setup
                0x000000008202ef94      0x478 drivers/built-in.o
                0x000000008202ef94                ft_pci_setup
 .text.ahci_scsi_bus_reset
                0x000000008202f40c        0x8 drivers/built-in.o
 .text.ahci_print_info
                0x000000008202f414      0x234 drivers/built-in.o
 .text.ahci_start_ports
                0x000000008202f648      0x184 drivers/built-in.o
 .text.ata_id_strcpy
                0x000000008202f7cc       0x2c drivers/built-in.o
 .text.ahci_device_data_io.constprop.2
                0x000000008202f7f8      0x168 drivers/built-in.o
 .text.ata_scsiop_inquiry
                0x000000008202f960      0x164 drivers/built-in.o
 .text.ata_scsiop_read_write
                0x000000008202fac4      0x278 drivers/built-in.o
 .text.ahci_scsi_exec
                0x000000008202fd3c      0x17c drivers/built-in.o
 .text.ahci_port_base
                0x000000008202feb8       0x10 drivers/built-in.o
                0x000000008202feb8                ahci_port_base
 .text.ahci_link_up
                0x000000008202fec8       0x5c drivers/built-in.o
                0x000000008202fec8                ahci_link_up
 .text.ahci_reset
                0x000000008202ff24       0x74 drivers/built-in.o
                0x000000008202ff24                ahci_reset
 .text.ahci_host_init
                0x000000008202ff98      0x2a0 drivers/built-in.o
 .text.ahci_bind_scsi
                0x0000000082030238       0x3c drivers/built-in.o
                0x0000000082030238                ahci_bind_scsi
 .text.ahci_probe_scsi
                0x0000000082030274       0x9c drivers/built-in.o
                0x0000000082030274                ahci_probe_scsi
 .text.ata_id_n_sectors
                0x0000000082030310       0x58 drivers/built-in.o
                0x0000000082030310                ata_id_n_sectors
 .text.ata_swap_buf_le16
                0x0000000082030368        0x4 drivers/built-in.o
                0x0000000082030368                ata_swap_buf_le16
 .text.sata_ceva_ofdata_to_platdata
                0x000000008203036c       0xa0 drivers/built-in.o
 .text.sata_ceva_probe
                0x000000008203040c      0x144 drivers/built-in.o
 .text.sata_ceva_bind
                0x0000000082030550       0x18 drivers/built-in.o
 .text.get_desc
                0x0000000082030568       0xd0 drivers/built-in.o
 .text.blk_post_probe
                0x0000000082030638       0x1c drivers/built-in.o
 .text.blk_get_if_type_name
                0x0000000082030654       0x10 drivers/built-in.o
                0x0000000082030654                blk_get_if_type_name
 .text.blk_get_devnum_by_typename
                0x0000000082030664       0xf4 drivers/built-in.o
                0x0000000082030664                blk_get_devnum_by_typename
 .text.blk_list_part
                0x0000000082030758       0x7c drivers/built-in.o
                0x0000000082030758                blk_list_part
 .text.blk_print_part_devnum
                0x00000000820307d4       0x48 drivers/built-in.o
                0x00000000820307d4                blk_print_part_devnum
 .text.blk_list_devices
                0x000000008203081c       0x78 drivers/built-in.o
                0x000000008203081c                blk_list_devices
 .text.blk_print_device_num
                0x0000000082030894       0x48 drivers/built-in.o
                0x0000000082030894                blk_print_device_num
 .text.blk_show_device
                0x00000000820308dc       0x7c drivers/built-in.o
                0x00000000820308dc                blk_show_device
 .text.blk_select_hwpart
                0x0000000082030958       0x28 drivers/built-in.o
                0x0000000082030958                blk_select_hwpart
 .text.blk_dselect_hwpart
                0x0000000082030980        0x8 drivers/built-in.o
                0x0000000082030980                blk_dselect_hwpart
 .text.blk_first_device
                0x0000000082030988       0x70 drivers/built-in.o
                0x0000000082030988                blk_first_device
 .text.blk_next_device
                0x00000000820309f8       0x64 drivers/built-in.o
                0x00000000820309f8                blk_next_device
 .text.blk_find_device
                0x0000000082030a5c       0xa0 drivers/built-in.o
                0x0000000082030a5c                blk_find_device
 .text.blk_get_device
                0x0000000082030afc       0x34 drivers/built-in.o
                0x0000000082030afc                blk_get_device
 .text.blk_get_devnum_by_type
                0x0000000082030b30       0x2c drivers/built-in.o
                0x0000000082030b30                blk_get_devnum_by_type
 .text.blk_select_hwpart_devnum
                0x0000000082030b5c       0x34 drivers/built-in.o
                0x0000000082030b5c                blk_select_hwpart_devnum
 .text.blk_dread
                0x0000000082030b90       0xb8 drivers/built-in.o
                0x0000000082030b90                blk_dread
 .text.blk_read_devnum
                0x0000000082030c48       0x54 drivers/built-in.o
                0x0000000082030c48                blk_read_devnum
 .text.blk_dwrite
                0x0000000082030c9c       0x80 drivers/built-in.o
                0x0000000082030c9c                blk_dwrite
 .text.blk_write_devnum
                0x0000000082030d1c       0x54 drivers/built-in.o
                0x0000000082030d1c                blk_write_devnum
 .text.blk_derase
                0x0000000082030d70       0x6c drivers/built-in.o
                0x0000000082030d70                blk_derase
 .text.blk_get_from_parent
                0x0000000082030ddc       0x5c drivers/built-in.o
                0x0000000082030ddc                blk_get_from_parent
 .text.blk_find_max_devnum
                0x0000000082030e38       0x90 drivers/built-in.o
                0x0000000082030e38                blk_find_max_devnum
 .text.blk_next_free_devnum
                0x0000000082030ec8       0x2c drivers/built-in.o
                0x0000000082030ec8                blk_next_free_devnum
 .text.blk_create_device
                0x0000000082030ef4      0x158 drivers/built-in.o
                0x0000000082030ef4                blk_create_device
 .text.blk_create_devicef
                0x000000008203104c       0xc4 drivers/built-in.o
                0x000000008203104c                blk_create_devicef
 .text.blk_unbind_all
                0x0000000082031110       0xa8 drivers/built-in.o
                0x0000000082031110                blk_unbind_all
 .text.blkcache_read
                0x00000000820311b8       0xf0 drivers/built-in.o
                0x00000000820311b8                blkcache_read
 .text.blkcache_fill
                0x00000000820312a8      0x150 drivers/built-in.o
                0x00000000820312a8                blkcache_fill
 .text.blkcache_invalidate
                0x00000000820313f8       0xa0 drivers/built-in.o
                0x00000000820313f8                blkcache_invalidate
 .text.blkcache_configure
                0x0000000082031498       0xa4 drivers/built-in.o
                0x0000000082031498                blkcache_configure
 .text.blkcache_stats
                0x000000008203153c       0x34 drivers/built-in.o
                0x000000008203153c                blkcache_stats
 .text.fdt_fixup_crypto_node
                0x0000000082031570      0x118 drivers/built-in.o
                0x0000000082031570                fdt_fixup_crypto_node
 .text.jr_dequeue
                0x0000000082031688      0x16c drivers/built-in.o
 .text.desc_done
                0x00000000820317f4       0x2c drivers/built-in.o
 .text.jr_enqueue.constprop.4
                0x0000000082031820      0x150 drivers/built-in.o
 .text.run_descriptor_jr
                0x0000000082031970       0xa8 drivers/built-in.o
                0x0000000082031970                run_descriptor_jr
 .text.sec_init_idx
                0x0000000082031a18      0x438 drivers/built-in.o
                0x0000000082031a18                sec_init_idx
 .text.sec_init
                0x0000000082031e50        0x8 drivers/built-in.o
                0x0000000082031e50                sec_init
 .text.caam_hash
                0x0000000082031e58       0xf0 drivers/built-in.o
                0x0000000082031e58                caam_hash
 .text.hw_sha256
                0x0000000082031f48       0x2c drivers/built-in.o
                0x0000000082031f48                hw_sha256
 .text.hw_sha1  0x0000000082031f74       0x2c drivers/built-in.o
                0x0000000082031f74                hw_sha1
 .text.inline_cnstr_jobdesc_hash
                0x0000000082031fa0       0xb4 drivers/built-in.o
                0x0000000082031fa0                inline_cnstr_jobdesc_hash
 .text.inline_cnstr_jobdesc_rng_instantiation
                0x0000000082032054       0x60 drivers/built-in.o
                0x0000000082032054                inline_cnstr_jobdesc_rng_instantiation
 .text.report_jump_status
                0x00000000820320b4        0x4 drivers/built-in.o
 .text.report_deco_status
                0x00000000820320b8       0x70 drivers/built-in.o
 .text.report_ccb_status
                0x0000000082032128       0x58 drivers/built-in.o
 .text.report_jr_status
                0x0000000082032180        0x4 drivers/built-in.o
 .text.report_cond_code_status
                0x0000000082032184        0x4 drivers/built-in.o
 .text.caam_jr_strstatus
                0x0000000082032188       0x28 drivers/built-in.o
                0x0000000082032188                caam_jr_strstatus
 .text.ifc_cfg_boot_info
                0x00000000820321b0       0x18 drivers/built-in.o
                0x00000000820321b0                ifc_cfg_boot_info
 .text.init_early_memctl_regs
                0x00000000820321c8      0x110 drivers/built-in.o
                0x00000000820321c8                init_early_memctl_regs
 .text.inhibit_portals
                0x00000000820322d8       0x88 drivers/built-in.o
                0x00000000820322d8                inhibit_portals
 .text.setup_qbman_portals
                0x0000000082032360       0xb8 drivers/built-in.o
                0x0000000082032360                setup_qbman_portals
 .text.fdt_fixup_qportals
                0x0000000082032418      0x190 drivers/built-in.o
                0x0000000082032418                fdt_fixup_qportals
 .text.fdt_fixup_bportals
                0x00000000820325a8      0x10c drivers/built-in.o
                0x00000000820325a8                fdt_fixup_bportals
 .text.mmc_send_ext_csd
                0x00000000820326b4       0x40 drivers/built-in.o
 .text.mmc_send_op_cond_iter
                0x00000000820326f4       0x74 drivers/built-in.o
 .text.mmc_go_idle
                0x0000000082032768       0x50 drivers/built-in.o
 .text.mmc_set_capacity
                0x00000000820327b8       0x84 drivers/built-in.o
 .text.mmc_read_and_compare_ext_csd
                0x000000008203283c       0xb0 drivers/built-in.o
 .text.sd_get_capabilities
                0x00000000820328ec      0x1b0 drivers/built-in.o
 .text.mmc_mode_name
                0x0000000082032a9c       0x24 drivers/built-in.o
                0x0000000082032a9c                mmc_mode_name
 .text.mmc_send_status
                0x0000000082032ac0       0xd4 drivers/built-in.o
                0x0000000082032ac0                mmc_send_status
 .text.__mmc_switch.isra.5.constprop.13
                0x0000000082032b94       0x6c drivers/built-in.o
 .text.mmc_set_card_speed.constprop.11
                0x0000000082032c00       0x9c drivers/built-in.o
 .text.mmc_startup_v4
                0x0000000082032c9c      0x2a8 drivers/built-in.o
 .text.mmc_set_blocklen
                0x0000000082032f44       0x7c drivers/built-in.o
                0x0000000082032f44                mmc_set_blocklen
 .text.mmc_bread
                0x0000000082032fc0      0x180 drivers/built-in.o
                0x0000000082032fc0                mmc_bread
 .text.mmc_switch
                0x0000000082033140        0xc drivers/built-in.o
                0x0000000082033140                mmc_switch
 .text.mmc_switch_part
                0x000000008203314c       0x78 drivers/built-in.o
                0x000000008203314c                mmc_switch_part
 .text.mmc_hwpart_config
                0x00000000820331c4      0x3cc drivers/built-in.o
                0x00000000820331c4                mmc_hwpart_config
 .text.mmc_set_clock
                0x0000000082033590       0x30 drivers/built-in.o
                0x0000000082033590                mmc_set_clock
 .text.mmc_dump_capabilities
                0x00000000820335c0        0x4 drivers/built-in.o
                0x00000000820335c0                mmc_dump_capabilities
 .text.mmc_get_op_cond
                0x00000000820335c4      0x22c drivers/built-in.o
                0x00000000820335c4                mmc_get_op_cond
 .text.mmc_start_init
                0x00000000820337f0       0x68 drivers/built-in.o
                0x00000000820337f0                mmc_start_init
 .text.mmc_init
                0x0000000082033858      0xa68 drivers/built-in.o
                0x0000000082033858                mmc_init
 .text.mmc_set_dsr
                0x00000000820342c0       0x10 drivers/built-in.o
                0x00000000820342c0                mmc_set_dsr
 .text.mmc_initialize
                0x00000000820342d0       0xd8 drivers/built-in.o
                0x00000000820342d0                mmc_initialize
 .text.mmc_blk_probe
                0x00000000820343a8       0x1c drivers/built-in.o
 .text.dm_mmc_set_ios
                0x00000000820343c4       0x1c drivers/built-in.o
                0x00000000820343c4                dm_mmc_set_ios
 .text.mmc_set_ios
                0x00000000820343e0        0x8 drivers/built-in.o
                0x00000000820343e0                mmc_set_ios
 .text.dm_mmc_send_init_stream
                0x00000000820343e8       0x18 drivers/built-in.o
                0x00000000820343e8                dm_mmc_send_init_stream
 .text.mmc_send_init_stream
                0x0000000082034400        0x8 drivers/built-in.o
                0x0000000082034400                mmc_send_init_stream
 .text.dm_mmc_get_wp
                0x0000000082034408       0x1c drivers/built-in.o
                0x0000000082034408                dm_mmc_get_wp
 .text.mmc_getwp
                0x0000000082034424        0x8 drivers/built-in.o
                0x0000000082034424                mmc_getwp
 .text.dm_mmc_get_cd
                0x000000008203442c       0x1c drivers/built-in.o
                0x000000008203442c                dm_mmc_get_cd
 .text.mmc_getcd
                0x0000000082034448        0x8 drivers/built-in.o
                0x0000000082034448                mmc_getcd
 .text.mmc_get_mmc_dev
                0x0000000082034450       0x28 drivers/built-in.o
                0x0000000082034450                mmc_get_mmc_dev
 .text.dm_mmc_send_cmd
                0x0000000082034478       0x60 drivers/built-in.o
                0x0000000082034478                dm_mmc_send_cmd
 .text.mmc_send_cmd
                0x00000000820344d8        0x8 drivers/built-in.o
                0x00000000820344d8                mmc_send_cmd
 .text.mmc_select_hwpart
                0x00000000820344e0       0x78 drivers/built-in.o
 .text.find_mmc_device
                0x0000000082034558       0x54 drivers/built-in.o
                0x0000000082034558                find_mmc_device
 .text.get_mmc_num
                0x00000000820345ac       0x20 drivers/built-in.o
                0x00000000820345ac                get_mmc_num
 .text.mmc_get_blk_desc
                0x00000000820345cc       0x30 drivers/built-in.o
                0x00000000820345cc                mmc_get_blk_desc
 .text.mmc_do_preinit
                0x00000000820345fc       0x68 drivers/built-in.o
                0x00000000820345fc                mmc_do_preinit
 .text.print_mmc_devices
                0x0000000082034664       0xfc drivers/built-in.o
                0x0000000082034664                print_mmc_devices
 .text.mmc_bind
                0x0000000082034760       0xcc drivers/built-in.o
                0x0000000082034760                mmc_bind
 .text.mmc_berase
                0x000000008203482c      0x1d4 drivers/built-in.o
                0x000000008203482c                mmc_berase
 .text.mmc_bwrite
                0x0000000082034a00      0x1a4 drivers/built-in.o
                0x0000000082034a00                mmc_bwrite
 .text.fsl_esdhc_get_cd
                0x0000000082034ba4       0x5c drivers/built-in.o
 .text.fsl_esdhc_set_ios
                0x0000000082034c00      0x150 drivers/built-in.o
 .text.fsl_esdhc_bind
                0x0000000082034d50       0x2c drivers/built-in.o
 .text.check_and_invalidate_dcache_range.isra.2
                0x0000000082034d7c       0x50 drivers/built-in.o
 .text.fsl_esdhc_send_cmd
                0x0000000082034dcc      0x468 drivers/built-in.o
 .text.esdhc_status_fixup
                0x0000000082035234        0x8 drivers/built-in.o
                0x0000000082035234                esdhc_status_fixup
 .text.fdt_fixup_esdhc
                0x000000008203523c       0x54 drivers/built-in.o
                0x000000008203523c                fdt_fixup_esdhc
 .text.init_clk_usdhc
                0x0000000082035290        0x4 drivers/built-in.o
                0x0000000082035290                init_clk_usdhc
 .text.fsl_esdhc_probe
                0x0000000082035294      0x3cc drivers/built-in.o
 .text.scsi_exec
                0x0000000082035660       0x1c drivers/built-in.o
                0x0000000082035660                scsi_exec
 .text.scsi_ident_cpy
                0x000000008203567c       0x78 drivers/built-in.o
 .text.scsi_read
                0x00000000820356f4      0x15c drivers/built-in.o
 .text.scsi_write
                0x0000000082035850      0x160 drivers/built-in.o
 .text.scsi_scan_dev
                0x00000000820359b0      0x458 drivers/built-in.o
                0x00000000820359b0                scsi_scan_dev
 .text.scsi_scan
                0x0000000082035e08       0x94 drivers/built-in.o
                0x0000000082035e08                scsi_scan
 .text.__get_spd
                0x0000000082035e9c       0xcc drivers/ddr/fsl/built-in.o
                0x0000000082035e9c                get_spd
 .text.update_spd_address
                0x0000000082035f68        0x4 drivers/ddr/fsl/built-in.o
                0x0000000082035f68                update_spd_address
 .text.fsl_ddr_get_spd
                0x0000000082035f6c       0x88 drivers/ddr/fsl/built-in.o
                0x0000000082035f6c                fsl_ddr_get_spd
 .text.__step_assign_addresses
                0x0000000082035ff4      0x258 drivers/ddr/fsl/built-in.o
                0x0000000082035ff4                step_assign_addresses
 .text.fsl_ddr_compute
                0x000000008203624c      0x314 drivers/ddr/fsl/built-in.o
                0x000000008203624c                fsl_ddr_compute
 .text.fsl_ddr_sdram_size
                0x0000000082036560       0x60 drivers/ddr/fsl/built-in.o
                0x0000000082036560                fsl_ddr_sdram_size
 .text.fsl_ddr_get_version
                0x00000000820365c0       0x54 drivers/ddr/fsl/built-in.o
                0x00000000820365c0                fsl_ddr_get_version
 .text.get_memory_clk_period_ps
                0x0000000082036614       0x3c drivers/ddr/fsl/built-in.o
                0x0000000082036614                get_memory_clk_period_ps
 .text.picos_to_mclk
                0x0000000082036650       0x58 drivers/ddr/fsl/built-in.o
                0x0000000082036650                picos_to_mclk
 .text.mclk_to_picos
                0x00000000820366a8       0x24 drivers/ddr/fsl/built-in.o
                0x00000000820366a8                mclk_to_picos
 .text.print_ddr_info
                0x00000000820366cc      0x1e0 drivers/ddr/fsl/built-in.o
                0x00000000820366cc                print_ddr_info
 .text.detail_board_ddr_info
                0x00000000820368ac        0x8 drivers/ddr/fsl/built-in.o
                0x00000000820368ac                detail_board_ddr_info
 .text.board_add_ram_info
                0x00000000820368b4        0x4 drivers/ddr/fsl/built-in.o
                0x00000000820368b4                board_add_ram_info
 .text.remove_unused_controllers
                0x00000000820368b8        0x4 drivers/ddr/fsl/built-in.o
                0x00000000820368b8                remove_unused_controllers
 .text.check_fsl_memctl_config_regs
                0x00000000820368bc       0x3c drivers/ddr/fsl/built-in.o
                0x00000000820368bc                check_fsl_memctl_config_regs
 .text.compute_fsl_memctl_config_regs
                0x00000000820368f8     0x1428 drivers/ddr/fsl/built-in.o
                0x00000000820368f8                compute_fsl_memctl_config_regs
 .text.fsl_ddr_board_options
                0x0000000082037d20        0x4 drivers/ddr/fsl/built-in.o
                0x0000000082037d20                fsl_ddr_board_options
 .text.populate_memctl_options
                0x0000000082037d24      0x4c0 drivers/ddr/fsl/built-in.o
                0x0000000082037d24                populate_memctl_options
 .text.check_interleaving_options
                0x00000000820381e4      0x110 drivers/ddr/fsl/built-in.o
                0x00000000820381e4                check_interleaving_options
 .text.compute_lowest_common_dimm_parameters
                0x00000000820382f4      0x498 drivers/ddr/fsl/built-in.o
                0x00000000820382f4                compute_lowest_common_dimm_parameters
 .text.ddr_compute_dimm_parameters
                0x000000008203878c      0x604 drivers/ddr/fsl/built-in.o
                0x000000008203878c                ddr_compute_dimm_parameters
 .text.i2c_get_adapter
                0x0000000082038d90       0x7c drivers/i2c/built-in.o
                0x0000000082038d90                i2c_get_adapter
 .text.i2c_init_bus
                0x0000000082038e0c       0xb0 drivers/i2c/built-in.o
 .text.i2c_get_bus_num
                0x0000000082038ebc        0x8 drivers/i2c/built-in.o
                0x0000000082038ebc                i2c_get_bus_num
 .text.i2c_set_bus_num
                0x0000000082038ec4       0xd4 drivers/i2c/built-in.o
                0x0000000082038ec4                i2c_set_bus_num
 .text.i2c_init_all
                0x0000000082038f98       0x18 drivers/i2c/built-in.o
                0x0000000082038f98                i2c_init_all
 .text.i2c_probe
                0x0000000082038fb0       0x38 drivers/i2c/built-in.o
                0x0000000082038fb0                i2c_probe
 .text.i2c_read
                0x0000000082038fe8       0x68 drivers/i2c/built-in.o
                0x0000000082038fe8                i2c_read
 .text.i2c_write
                0x0000000082039050       0x68 drivers/i2c/built-in.o
                0x0000000082039050                i2c_write
 .text.i2c_set_bus_speed
                0x00000000820390b8       0x74 drivers/i2c/built-in.o
                0x00000000820390b8                i2c_set_bus_speed
 .text.i2c_get_bus_speed
                0x000000008203912c       0x1c drivers/i2c/built-in.o
                0x000000008203912c                i2c_get_bus_speed
 .text.i2c_init
                0x0000000082039148       0x14 drivers/i2c/built-in.o
                0x0000000082039148                i2c_init
 .text.wait_for_sr_state
                0x000000008203915c      0x134 drivers/i2c/built-in.o
 .text.tx_byte  0x0000000082039290       0x68 drivers/i2c/built-in.o
 .text.bus_i2c_set_bus_speed
                0x00000000820392f8       0xf0 drivers/i2c/built-in.o
 .text.mxc_i2c_set_bus_speed
                0x00000000820393e8       0x18 drivers/i2c/built-in.o
 .text.i2c_imx_stop
                0x0000000082039400       0x6c drivers/i2c/built-in.o
 .text.__i2c_force_reset_slave
                0x000000008203946c        0x4 drivers/i2c/built-in.o
                0x000000008203946c                __i2c_force_reset_slave
                0x000000008203946c                i2c_force_reset_slave
 .text.i2c_idle_bus
                0x0000000082039470       0x1c drivers/i2c/built-in.o
                0x0000000082039470                i2c_idle_bus
 .text.i2c_init_transfer
                0x000000008203948c      0x25c drivers/i2c/built-in.o
 .text.mxc_i2c_probe
                0x00000000820396e8       0x4c drivers/i2c/built-in.o
 .text.mxc_i2c_read
                0x0000000082039734      0x208 drivers/i2c/built-in.o
 .text.mxc_i2c_write
                0x000000008203993c       0x8c drivers/i2c/built-in.o
 .text.__enable_i2c_clk
                0x00000000820399c8        0x8 drivers/i2c/built-in.o
                0x00000000820399c8                enable_i2c_clk
                0x00000000820399c8                __enable_i2c_clk
 .text.bus_i2c_init
                0x00000000820399d0       0x94 drivers/i2c/built-in.o
                0x00000000820399d0                bus_i2c_init
 .text.mxc_i2c_init
                0x0000000082039a64       0x10 drivers/i2c/built-in.o
 .text.mtd_check_oob_ops
                0x0000000082039a74       0xa8 drivers/mtd/built-in.o
 .text.mtd_erase
                0x0000000082039b1c       0x84 drivers/mtd/built-in.o
                0x0000000082039b1c                mtd_erase
 .text.mtd_read
                0x0000000082039ba0       0xc4 drivers/mtd/built-in.o
                0x0000000082039ba0                mtd_read
 .text.mtd_write
                0x0000000082039c64       0xa8 drivers/mtd/built-in.o
                0x0000000082039c64                mtd_write
 .text.mtd_read_oob
                0x0000000082039d0c       0xac drivers/mtd/built-in.o
                0x0000000082039d0c                mtd_read_oob
 .text.mtd_write_oob
                0x0000000082039db8       0x88 drivers/mtd/built-in.o
                0x0000000082039db8                mtd_write_oob
 .text.mtd_block_isbad
                0x0000000082039e40       0x2c drivers/mtd/built-in.o
                0x0000000082039e40                mtd_block_isbad
 .text.mtd_block_markbad
                0x0000000082039e6c       0x3c drivers/mtd/built-in.o
                0x0000000082039e6c                mtd_block_markbad
 .text.mtd_arg_off
                0x0000000082039ea8       0x7c drivers/mtd/built-in.o
                0x0000000082039ea8                mtd_arg_off
 .text.mtd_arg_off_size
                0x0000000082039f24      0x114 drivers/mtd/built-in.o
                0x0000000082039f24                mtd_arg_off_size
 .text.get_nand_dev_by_index
                0x000000008203a038       0x28 drivers/mtd/nand/raw/built-in.o
                0x000000008203a038                get_nand_dev_by_index
 .text.nand_register
                0x000000008203a060       0x98 drivers/mtd/nand/raw/built-in.o
                0x000000008203a060                nand_register
 .text.nand_size
                0x000000008203a0f8        0xc drivers/mtd/nand/raw/built-in.o
                0x000000008203a0f8                nand_size
 .text.nand_init
                0x000000008203a104       0x1c drivers/mtd/nand/raw/built-in.o
                0x000000008203a104                nand_init
 .text.verify_bbt_descr
                0x000000008203a120      0x20c drivers/mtd/nand/raw/built-in.o
 .text.create_bbt
                0x000000008203a32c      0x1b0 drivers/mtd/nand/raw/built-in.o
 .text.read_bbt
                0x000000008203a4dc      0x1b8 drivers/mtd/nand/raw/built-in.o
 .text.write_bbt
                0x000000008203a694      0x508 drivers/mtd/nand/raw/built-in.o
 .text.nand_update_bbt
                0x000000008203ab9c      0x12c drivers/mtd/nand/raw/built-in.o
 .text.mark_bbt_region
                0x000000008203acc8      0x184 drivers/mtd/nand/raw/built-in.o
 .text.scan_read
                0x000000008203ae4c       0xf4 drivers/mtd/nand/raw/built-in.o
 .text.search_bbt
                0x000000008203af40      0x174 drivers/mtd/nand/raw/built-in.o
 .text.read_abs_bbt
                0x000000008203b0b4       0xd8 drivers/mtd/nand/raw/built-in.o
 .text.nand_default_bbt
                0x000000008203b18c      0x510 drivers/mtd/nand/raw/built-in.o
                0x000000008203b18c                nand_default_bbt
 .text.nand_isreserved_bbt
                0x000000008203b69c       0x2c drivers/mtd/nand/raw/built-in.o
                0x000000008203b69c                nand_isreserved_bbt
 .text.nand_isbad_bbt
                0x000000008203b6c8       0x48 drivers/mtd/nand/raw/built-in.o
                0x000000008203b6c8                nand_isbad_bbt
 .text.nand_markbad_bbt
                0x000000008203b710       0x40 drivers/mtd/nand/raw/built-in.o
                0x000000008203b710                nand_markbad_bbt
 .text.check_skip_len
                0x000000008203b750       0xc0 drivers/mtd/nand/raw/built-in.o
 .text.nand_erase_opts
                0x000000008203b810      0x28c drivers/mtd/nand/raw/built-in.o
                0x000000008203b810                nand_erase_opts
 .text.nand_verify_page_oob
                0x000000008203ba9c       0xc8 drivers/mtd/nand/raw/built-in.o
                0x000000008203ba9c                nand_verify_page_oob
 .text.nand_verify
                0x000000008203bb64       0xf0 drivers/mtd/nand/raw/built-in.o
                0x000000008203bb64                nand_verify
 .text.nand_write_skip_bad
                0x000000008203bc54      0x22c drivers/mtd/nand/raw/built-in.o
                0x000000008203bc54                nand_write_skip_bad
 .text.nand_read_skip_bad
                0x000000008203be80      0x1ec drivers/mtd/nand/raw/built-in.o
                0x000000008203be80                nand_read_skip_bad
 .text.nand_calculate_ecc
                0x000000008203c06c      0x118 drivers/mtd/nand/raw/built-in.o
                0x000000008203c06c                nand_calculate_ecc
 .text.nand_correct_data
                0x000000008203c184      0x13c drivers/mtd/nand/raw/built-in.o
                0x000000008203c184                nand_correct_data
 .text.nand_release_device
                0x000000008203c2c0        0xc drivers/mtd/nand/raw/built-in.o
 .text.nand_read_byte
                0x000000008203c2cc       0x14 drivers/mtd/nand/raw/built-in.o
                0x000000008203c2cc                nand_read_byte
 .text.nand_read_byte16
                0x000000008203c2e0       0x14 drivers/mtd/nand/raw/built-in.o
 .text.nand_read_word
                0x000000008203c2f4       0x14 drivers/mtd/nand/raw/built-in.o
 .text.nand_write_byte
                0x000000008203c308       0x28 drivers/mtd/nand/raw/built-in.o
 .text.nand_write_byte16
                0x000000008203c330       0x28 drivers/mtd/nand/raw/built-in.o
 .text.nand_write_buf
                0x000000008203c358       0x28 drivers/mtd/nand/raw/built-in.o
                0x000000008203c358                nand_write_buf
 .text.nand_read_buf
                0x000000008203c380       0x2c drivers/mtd/nand/raw/built-in.o
                0x000000008203c380                nand_read_buf
 .text.nand_write_buf16
                0x000000008203c3ac       0x2c drivers/mtd/nand/raw/built-in.o
                0x000000008203c3ac                nand_write_buf16
 .text.nand_read_buf16
                0x000000008203c3d8       0x30 drivers/mtd/nand/raw/built-in.o
                0x000000008203c3d8                nand_read_buf16
 .text.nand_check_wp
                0x000000008203c408       0x54 drivers/mtd/nand/raw/built-in.o
 .text.nand_setup_data_interface
                0x000000008203c45c       0x80 drivers/mtd/nand/raw/built-in.o
 .text.nand_read_page_raw
                0x000000008203c4dc       0x58 drivers/mtd/nand/raw/built-in.o
 .text.nand_read_page_raw_syndrome
                0x000000008203c534      0x104 drivers/mtd/nand/raw/built-in.o
 .text.nand_read_page_swecc
                0x000000008203c638      0x13c drivers/mtd/nand/raw/built-in.o
 .text.nand_read_oob_std
                0x000000008203c774       0x4c drivers/mtd/nand/raw/built-in.o
 .text.nand_read_oob_syndrome
                0x000000008203c7c0      0x11c drivers/mtd/nand/raw/built-in.o
 .text.nand_write_oob_std
                0x000000008203c8dc       0x8c drivers/mtd/nand/raw/built-in.o
 .text.nand_write_oob_syndrome
                0x000000008203c968      0x1a8 drivers/mtd/nand/raw/built-in.o
 .text.nand_write_page_raw
                0x000000008203cb10       0x58 drivers/mtd/nand/raw/built-in.o
 .text.nand_write_page_raw_syndrome
                0x000000008203cb68      0x104 drivers/mtd/nand/raw/built-in.o
 .text.nand_write_page_swecc
                0x000000008203cc6c       0xd8 drivers/mtd/nand/raw/built-in.o
 .text.nand_write_page_hwecc
                0x000000008203cd44       0xec drivers/mtd/nand/raw/built-in.o
 .text.nand_write_page_syndrome
                0x000000008203ce30      0x124 drivers/mtd/nand/raw/built-in.o
 .text.single_erase
                0x000000008203cf54       0x54 drivers/mtd/nand/raw/built-in.o
 .text.nand_sync
                0x000000008203cfa8        0xc drivers/mtd/nand/raw/built-in.o
 .text.nand_set_defaults
                0x000000008203cfb4      0x1b8 drivers/mtd/nand/raw/built-in.o
 .text.nand_setup_read_retry_micron
                0x000000008203d16c       0x2c drivers/mtd/nand/raw/built-in.o
 .text.nand_write_subpage_hwecc
                0x000000008203d198      0x198 drivers/mtd/nand/raw/built-in.o
 .text.nand_check_erased_buf
                0x000000008203d330      0x134 drivers/mtd/nand/raw/built-in.o
 .text.nand_block_bad
                0x000000008203d464      0x13c drivers/mtd/nand/raw/built-in.o
 .text.nand_write_page
                0x000000008203d5a0      0x148 drivers/mtd/nand/raw/built-in.o
 .text.nand_block_checkbad
                0x000000008203d6e8       0x7c drivers/mtd/nand/raw/built-in.o
 .text.nand_block_isbad
                0x000000008203d764       0x68 drivers/mtd/nand/raw/built-in.o
 .text.nand_wait
                0x000000008203d7cc       0xc8 drivers/mtd/nand/raw/built-in.o
 .text.sanitize_string
                0x000000008203d894       0x3c drivers/mtd/nand/raw/built-in.o
 .text.nand_block_isreserved
                0x000000008203d8d0       0x14 drivers/mtd/nand/raw/built-in.o
 .text.nand_onfi_set_features
                0x000000008203d8e4       0x90 drivers/mtd/nand/raw/built-in.o
 .text.nand_onfi_get_features
                0x000000008203d974       0x78 drivers/mtd/nand/raw/built-in.o
 .text.nand_fill_oob
                0x000000008203d9ec      0x12c drivers/mtd/nand/raw/built-in.o
 .text.nand_do_write_ops
                0x000000008203db18      0x2d0 drivers/mtd/nand/raw/built-in.o
 .text.nand_select_chip
                0x000000008203dde8       0x50 drivers/mtd/nand/raw/built-in.o
 .text.nand_transfer_oob
                0x000000008203de38      0x118 drivers/mtd/nand/raw/built-in.o
 .text.onfi_crc16.constprop.10
                0x000000008203df50       0x4c drivers/mtd/nand/raw/built-in.o
 .text.panic_nand_write
                0x000000008203df9c       0xc0 drivers/mtd/nand/raw/built-in.o
 .text.nand_wait_status_ready.constprop.12
                0x000000008203e05c       0x4c drivers/mtd/nand/raw/built-in.o
 .text.nand_wait_ready
                0x000000008203e0a8       0x54 drivers/mtd/nand/raw/built-in.o
                0x000000008203e0a8                nand_wait_ready
 .text.nand_command_lp
                0x000000008203e0fc      0x27c drivers/mtd/nand/raw/built-in.o
 .text.nand_command
                0x000000008203e378      0x214 drivers/mtd/nand/raw/built-in.o
 .text.nand_read_oob
                0x000000008203e58c      0x61c drivers/mtd/nand/raw/built-in.o
 .text.nand_reset
                0x000000008203eba8       0xcc drivers/mtd/nand/raw/built-in.o
                0x000000008203eba8                nand_reset
 .text.nand_do_write_oob
                0x000000008203ec74      0x158 drivers/mtd/nand/raw/built-in.o
 .text.nand_default_block_markbad
                0x000000008203edcc       0xcc drivers/mtd/nand/raw/built-in.o
 .text.nand_write_oob
                0x000000008203ee98       0x8c drivers/mtd/nand/raw/built-in.o
 .text.nand_check_erased_ecc_chunk
                0x000000008203ef24       0xe8 drivers/mtd/nand/raw/built-in.o
                0x000000008203ef24                nand_check_erased_ecc_chunk
 .text.nand_read_page_syndrome
                0x000000008203f00c      0x1c8 drivers/mtd/nand/raw/built-in.o
 .text.nand_read_subpage
                0x000000008203f1d4      0x280 drivers/mtd/nand/raw/built-in.o
 .text.nand_read_page_hwecc
                0x000000008203f454      0x1b0 drivers/mtd/nand/raw/built-in.o
 .text.nand_read_page_hwecc_oob_first
                0x000000008203f604      0x1a4 drivers/mtd/nand/raw/built-in.o
 .text.nand_erase_nand
                0x000000008203f7a8      0x1dc drivers/mtd/nand/raw/built-in.o
                0x000000008203f7a8                nand_erase_nand
 .text.nand_block_markbad
                0x000000008203f984       0xd0 drivers/mtd/nand/raw/built-in.o
 .text.nand_erase
                0x000000008203fa54        0x8 drivers/mtd/nand/raw/built-in.o
 .text.nand_get_flash_type
                0x000000008203fa5c      0xff8 drivers/mtd/nand/raw/built-in.o
                0x000000008203fa5c                nand_get_flash_type
 .text.nand_scan_ident
                0x0000000082040a54      0x40c drivers/mtd/nand/raw/built-in.o
                0x0000000082040a54                nand_scan_ident
 .text.nand_scan_tail
                0x0000000082040e60      0x5ec drivers/mtd/nand/raw/built-in.o
                0x0000000082040e60                nand_scan_tail
 .text.onfi_init_data_interface
                0x000000008204144c       0xbc drivers/mtd/nand/raw/built-in.o
                0x000000008204144c                onfi_init_data_interface
 .text.nand_get_default_data_interface
                0x0000000082041508        0xc drivers/mtd/nand/raw/built-in.o
                0x0000000082041508                nand_get_default_data_interface
 .text.fsl_ifc_select_chip
                0x0000000082041514        0x4 drivers/mtd/nand/raw/built-in.o
 .text.set_addr
                0x0000000082041518       0x68 drivers/mtd/nand/raw/built-in.o
 .text.fsl_ifc_read_buf
                0x0000000082041580       0x9c drivers/mtd/nand/raw/built-in.o
 .text.fsl_ifc_read_page
                0x000000008204161c      0x144 drivers/mtd/nand/raw/built-in.o
 .text.fsl_ifc_write_buf
                0x0000000082041760       0xb0 drivers/mtd/nand/raw/built-in.o
 .text.fsl_ifc_write_page
                0x0000000082041810       0x40 drivers/mtd/nand/raw/built-in.o
 .text.fsl_ifc_run_command
                0x0000000082041850      0x178 drivers/mtd/nand/raw/built-in.o
 .text.fsl_ifc_wait
                0x00000000820419c8       0x9c drivers/mtd/nand/raw/built-in.o
 .text.fsl_ifc_read_byte
                0x0000000082041a64       0x5c drivers/mtd/nand/raw/built-in.o
 .text.fsl_ifc_read_byte16
                0x0000000082041ac0       0x60 drivers/mtd/nand/raw/built-in.o
 .text.fsl_ifc_cmdfunc
                0x0000000082041b20      0x364 drivers/mtd/nand/raw/built-in.o
 .text.board_nand_init
                0x0000000082041e84      0x4f8 drivers/mtd/nand/raw/built-in.o
                0x0000000082041e84                board_nand_init
 .text.spi_flash_post_bind
                0x000000008204237c        0x8 drivers/mtd/spi/built-in.o
 .text.spi_flash_read_dm
                0x0000000082042384       0x10 drivers/mtd/spi/built-in.o
                0x0000000082042384                spi_flash_read_dm
 .text.spi_flash_write_dm
                0x0000000082042394       0x10 drivers/mtd/spi/built-in.o
                0x0000000082042394                spi_flash_write_dm
 .text.spi_flash_erase_dm
                0x00000000820423a4       0x10 drivers/mtd/spi/built-in.o
                0x00000000820423a4                spi_flash_erase_dm
 .text.spi_flash_free
                0x00000000820423b4       0x10 drivers/mtd/spi/built-in.o
                0x00000000820423b4                spi_flash_free
 .text.spi_flash_probe_bus_cs
                0x00000000820423c4       0x98 drivers/mtd/spi/built-in.o
                0x00000000820423c4                spi_flash_probe_bus_cs
 .text.spi_flash_std_remove
                0x000000008204245c        0x8 drivers/mtd/spi/built-in.o
 .text.spi_flash_std_write
                0x0000000082042464       0x48 drivers/mtd/spi/built-in.o
 .text.spi_flash_std_read
                0x00000000820424ac       0x48 drivers/mtd/spi/built-in.o
 .text.spi_flash_std_get_sw_write_prot
                0x00000000820424f4       0x14 drivers/mtd/spi/built-in.o
 .text.spi_flash_std_erase
                0x0000000082042508       0x88 drivers/mtd/spi/built-in.o
 .text.spi_flash_std_probe
                0x0000000082042590       0x84 drivers/mtd/spi/built-in.o
 .text.stm_get_locked_range
                0x0000000082042614       0x54 drivers/mtd/spi/built-in.o
 .text.spi_nor_read
                0x0000000082042668       0x98 drivers/mtd/spi/built-in.o
 .text.read_sr  0x0000000082042700       0x50 drivers/mtd/spi/built-in.o
 .text.spi_nor_write_data
                0x0000000082042750       0xd4 drivers/mtd/spi/built-in.o
 .text.spi_nor_read_data
                0x0000000082042824       0xdc drivers/mtd/spi/built-in.o
 .text.spi_nor_wait_till_ready_with_timeout.constprop.6
                0x0000000082042900       0xf8 drivers/mtd/spi/built-in.o
 .text.spi_nor_read_reg
                0x00000000820429f8       0x64 drivers/mtd/spi/built-in.o
 .text.spi_nor_write_reg
                0x0000000082042a5c       0x68 drivers/mtd/spi/built-in.o
 .text.stm_is_locked
                0x0000000082042ac4       0x78 drivers/mtd/spi/built-in.o
 .text.stm_is_unlocked_sr
                0x0000000082042b3c       0x5c drivers/mtd/spi/built-in.o
 .text.stm_is_locked_sr
                0x0000000082042b98       0x5c drivers/mtd/spi/built-in.o
 .text.write_enable
                0x0000000082042bf4       0x14 drivers/mtd/spi/built-in.o
                0x0000000082042bf4                write_enable
 .text.spi_nor_write
                0x0000000082042c08      0x12c drivers/mtd/spi/built-in.o
 .text.write_sr_and_check
                0x0000000082042d34       0xb0 drivers/mtd/spi/built-in.o
 .text.stm_unlock
                0x0000000082042de4      0x220 drivers/mtd/spi/built-in.o
 .text.stm_lock
                0x0000000082043004      0x268 drivers/mtd/spi/built-in.o
 .text.write_disable
                0x000000008204326c       0x14 drivers/mtd/spi/built-in.o
                0x000000008204326c                write_disable
 .text.spi_nor_erase
                0x0000000082043280       0xe8 drivers/mtd/spi/built-in.o
 .text.spi_nor_scan
                0x0000000082043368      0x838 drivers/mtd/spi/built-in.o
                0x0000000082043368                spi_nor_scan
 .text.spi_flash_cmd_get_sw_write_prot
                0x0000000082043ba0       0x24 drivers/mtd/spi/built-in.o
                0x0000000082043ba0                spi_flash_cmd_get_sw_write_prot
 .text.e1000_config_collision_dist
                0x0000000082043bc4       0x40 drivers/net/built-in.o
 .text.e1000_force_mac_fc
                0x0000000082043c04       0x80 drivers/net/built-in.o
 .text.e1000_transmit
                0x0000000082043c84      0x11c drivers/net/built-in.o
 .text.e1000_is_onboard_nvm_eeprom
                0x0000000082043da0       0x44 drivers/net/built-in.o
 .text.e1000_put_hw_eeprom_semaphore
                0x0000000082043de4       0x44 drivers/net/built-in.o
 .text.e1000_is_second_port
                0x0000000082043e28       0x40 drivers/net/built-in.o
 .text.e1000_check_phy_reset_block
                0x0000000082043e68       0x54 drivers/net/built-in.o
 .text.e1000_set_media_type
                0x0000000082043ebc       0xc0 drivers/net/built-in.o
 .text.e1000_disable
                0x0000000082043f7c       0x54 drivers/net/built-in.o
 .text.e1000_get_hw_eeprom_semaphore
                0x0000000082043fd0       0xdc drivers/net/built-in.o
 .text.e1000_swfw_sync_acquire
                0x00000000820440ac       0x98 drivers/net/built-in.o
 .text.e1000_write_kmrn_reg
                0x0000000082044144       0x78 drivers/net/built-in.o
 .text.e1000_swfw_sync_release
                0x00000000820441bc       0x54 drivers/net/built-in.o
 .text.e1000_write_eeprom_srwr
                0x0000000082044210       0xc8 drivers/net/built-in.o
 .text.e1000_pool_flash_update_done_i210.isra.10
                0x00000000820442d8       0x4c drivers/net/built-in.o
 .text.e1000_raise_mdi_clk.isra.11
                0x0000000082044324       0x24 drivers/net/built-in.o
 .text.e1000_lower_mdi_clk.isra.12
                0x0000000082044348       0x24 drivers/net/built-in.o
 .text.e1000_shift_out_mdi_bits
                0x000000008204436c       0xa4 drivers/net/built-in.o
 .text.e1000_read_phy_reg
                0x0000000082044410      0x158 drivers/net/built-in.o
 .text.e1000_config_mac_to_phy
                0x0000000082044568       0xa4 drivers/net/built-in.o
 .text.e1000_write_phy_reg
                0x000000008204460c       0xa4 drivers/net/built-in.o
 .text.e1000_config_fc_after_link_up
                0x00000000820446b0      0x290 drivers/net/built-in.o
 .text.e1000_phy_hw_reset.part.17
                0x0000000082044940      0x210 drivers/net/built-in.o
 .text.e1000_phy_reset.part.18
                0x0000000082044b50       0xec drivers/net/built-in.o
 .text.e1000_read_eeprom_eerd
                0x0000000082044c3c       0xf8 drivers/net/built-in.o
 .text.e1000_raise_ee_clk
                0x0000000082044d34       0x2c drivers/net/built-in.o
                0x0000000082044d34                e1000_raise_ee_clk
 .text.e1000_lower_ee_clk
                0x0000000082044d60       0x2c drivers/net/built-in.o
                0x0000000082044d60                e1000_lower_ee_clk
 .text.e1000_shift_out_ee_bits
                0x0000000082044d8c       0xc0 drivers/net/built-in.o
 .text.e1000_shift_in_ee_bits
                0x0000000082044e4c       0x9c drivers/net/built-in.o
 .text.e1000_standby_eeprom
                0x0000000082044ee8      0x110 drivers/net/built-in.o
                0x0000000082044ee8                e1000_standby_eeprom
 .text.e1000_acquire_eeprom
                0x0000000082044ff8      0x114 drivers/net/built-in.o
                0x0000000082044ff8                e1000_acquire_eeprom
 .text.e1000_release_eeprom
                0x000000008204510c       0xd0 drivers/net/built-in.o
                0x000000008204510c                e1000_release_eeprom
 .text.e1000_read_eeprom
                0x00000000820451dc      0x1cc drivers/net/built-in.o
 .text.e1000_read_mac_addr_from_eeprom
                0x00000000820453a8       0x70 drivers/net/built-in.o
 .text.e1000_write_hwaddr
                0x0000000082045418      0x194 drivers/net/built-in.o
 .text.e1000_init_eeprom_params
                0x00000000820455ac      0x290 drivers/net/built-in.o
 .text.e1000_set_mac_type
                0x000000008204583c      0x33c drivers/net/built-in.o
                0x000000008204583c                e1000_set_mac_type
 .text.e1000_reset_hw
                0x0000000082045b78      0x1d8 drivers/net/built-in.o
                0x0000000082045b78                e1000_reset_hw
 .text.fill_rx  0x0000000082045d50       0xa4 drivers/net/built-in.o
                0x0000000082045d50                fill_rx
 .text.e1000_poll
                0x0000000082045df4       0x94 drivers/net/built-in.o
 .text.e1000_init
                0x0000000082045e88     0x1c3c drivers/net/built-in.o
 .text.e1000_get_bus_type
                0x0000000082047ac4       0x48 drivers/net/built-in.o
                0x0000000082047ac4                e1000_get_bus_type
 .text.e1000_initialize
                0x0000000082047b0c      0x4d0 drivers/net/built-in.o
                0x0000000082047b0c                e1000_initialize
 .text.muram_readw
                0x0000000082047fdc       0x20 drivers/net/fm/built-in.o
 .text.muram_writew
                0x0000000082047ffc       0x34 drivers/net/fm/built-in.o
 .text.fm_eth_recv
                0x0000000082048030      0x118 drivers/net/fm/built-in.o
 .text.fm_eth_send
                0x0000000082048148      0x14c drivers/net/fm/built-in.o
 .text.dtsec_configure_serdes
                0x0000000082048294      0x104 drivers/net/fm/built-in.o
 .text.fm_eth_halt
                0x0000000082048398       0xa4 drivers/net/fm/built-in.o
 .text.fm_eth_open
                0x000000008204843c      0x110 drivers/net/fm/built-in.o
 .text.fm_eth_initialize
                0x000000008204854c      0x560 drivers/net/fm/built-in.o
                0x000000008204854c                fm_eth_initialize
 .text.fdt_fixup_fman_firmware
                0x0000000082048aac      0x2fc drivers/net/fm/built-in.o
                0x0000000082048aac                fdt_fixup_fman_firmware
 .text.fm_assign_risc
                0x0000000082048da8       0x14 drivers/net/fm/built-in.o
 .text.fm_muram_base
                0x0000000082048dbc       0x14 drivers/net/fm/built-in.o
                0x0000000082048dbc                fm_muram_base
 .text.fm_muram_alloc
                0x0000000082048dd0       0xa8 drivers/net/fm/built-in.o
                0x0000000082048dd0                fm_muram_alloc
 .text.fm_init_common
                0x0000000082048e78      0x5fc drivers/net/fm/built-in.o
                0x0000000082048e78                fm_init_common
 .text.fm_port_to_index
                0x0000000082049474       0x40 drivers/net/fm/built-in.o
 .text.fm_standard_init
                0x00000000820494b4       0x6c drivers/net/fm/built-in.o
                0x00000000820494b4                fm_standard_init
 .text.fman_enet_init
                0x0000000082049520       0x60 drivers/net/fm/built-in.o
                0x0000000082049520                fman_enet_init
 .text.fm_info_set_mdio
                0x0000000082049580       0x38 drivers/net/fm/built-in.o
                0x0000000082049580                fm_info_set_mdio
 .text.fm_info_set_phy_address
                0x00000000820495b8       0x38 drivers/net/fm/built-in.o
                0x00000000820495b8                fm_info_set_phy_address
 .text.__def_board_ft_fman_fixup_port
                0x00000000820495f0        0x4 drivers/net/fm/built-in.o
                0x00000000820495f0                board_ft_fman_fixup_port
 .text.ft_fixup_port
                0x00000000820495f4      0x1b4 drivers/net/fm/built-in.o
                0x00000000820495f4                ft_fixup_port
 .text.fdt_fixup_fman_ethernet
                0x00000000820497a8       0x60 drivers/net/fm/built-in.o
                0x00000000820497a8                fdt_fixup_fman_ethernet
 .text.memac_in_32
                0x0000000082049808        0xc drivers/net/fm/built-in.o
 .text.memac_mdio_reset
                0x0000000082049814        0x8 drivers/net/fm/built-in.o
                0x0000000082049814                memac_mdio_reset
 .text.memac_mdio_write
                0x000000008204981c       0xc0 drivers/net/fm/built-in.o
                0x000000008204981c                memac_mdio_write
 .text.memac_mdio_read
                0x00000000820498dc      0x110 drivers/net/fm/built-in.o
                0x00000000820498dc                memac_mdio_read
 .text.fm_memac_mdio_init
                0x00000000820499ec       0x98 drivers/net/fm/built-in.o
                0x00000000820499ec                fm_memac_mdio_init
 .text.memac_enable_mac
                0x0000000082049a84       0x1c drivers/net/fm/built-in.o
 .text.memac_disable_mac
                0x0000000082049aa0       0x14 drivers/net/fm/built-in.o
 .text.memac_set_interface_mode
                0x0000000082049ab4       0x94 drivers/net/fm/built-in.o
 .text.memac_set_mac_addr
                0x0000000082049b48       0x40 drivers/net/fm/built-in.o
 .text.memac_init_mac
                0x0000000082049b88       0x2c drivers/net/fm/built-in.o
 .text.init_memac
                0x0000000082049bb4       0x48 drivers/net/fm/built-in.o
                0x0000000082049bb4                init_memac
 .text.fman_port_enet_if
                0x0000000082049bfc      0x13c drivers/net/fm/built-in.o
                0x0000000082049bfc                fman_port_enet_if
 .text.genphy_shutdown
                0x0000000082049d38        0x8 drivers/net/phy/built-in.o
                0x0000000082049d38                genphy_shutdown
 .text.genphy_restart_aneg
                0x0000000082049d40       0x64 drivers/net/phy/built-in.o
                0x0000000082049d40                genphy_restart_aneg
 .text.genphy_config_aneg
                0x0000000082049da4      0x1ec drivers/net/phy/built-in.o
                0x0000000082049da4                genphy_config_aneg
 .text.genphy_config
                0x0000000082049f90       0xcc drivers/net/phy/built-in.o
                0x0000000082049f90                genphy_config
 .text.genphy_update_link
                0x000000008204a05c      0x14c drivers/net/phy/built-in.o
                0x000000008204a05c                genphy_update_link
 .text.genphy_parse_link
                0x000000008204a1a8      0x1b4 drivers/net/phy/built-in.o
                0x000000008204a1a8                genphy_parse_link
 .text.genphy_startup
                0x000000008204a35c       0x34 drivers/net/phy/built-in.o
                0x000000008204a35c                genphy_startup
 .text.phy_init
                0x000000008204a390       0x18 drivers/net/phy/built-in.o
                0x000000008204a390                phy_init
 .text.phy_register
                0x000000008204a3a8       0x24 drivers/net/phy/built-in.o
                0x000000008204a3a8                phy_register
 .text.get_phy_id
                0x000000008204a3cc       0x80 drivers/net/phy/built-in.o
                0x000000008204a3cc                get_phy_id
 .text.get_phy_device_by_mask
                0x000000008204a44c      0x2e4 drivers/net/phy/built-in.o
 .text.phy_reset
                0x000000008204a730       0xc8 drivers/net/phy/built-in.o
                0x000000008204a730                phy_reset
 .text.phy_find_by_mask
                0x000000008204a7f8       0x4c drivers/net/phy/built-in.o
                0x000000008204a7f8                phy_find_by_mask
 .text.phy_connect_dev
                0x000000008204a844       0x54 drivers/net/phy/built-in.o
                0x000000008204a844                phy_connect_dev
 .text.phy_connect
                0x000000008204a898       0x70 drivers/net/phy/built-in.o
                0x000000008204a898                phy_connect
 .text.phy_startup
                0x000000008204a908       0x18 drivers/net/phy/built-in.o
                0x000000008204a908                phy_startup
 .text.board_phy_config
                0x000000008204a920       0x18 drivers/net/phy/built-in.o
                0x000000008204a920                board_phy_config
 .text.phy_config
                0x000000008204a938        0x4 drivers/net/phy/built-in.o
                0x000000008204a938                phy_config
 .text.phy_shutdown
                0x000000008204a93c       0x2c drivers/net/phy/built-in.o
                0x000000008204a93c                phy_shutdown
 .text.ar8021_config
                0x000000008204a968       0x80 drivers/net/phy/built-in.o
 .text.ar8035_config
                0x000000008204a9e8      0x1ac drivers/net/phy/built-in.o
 .text.ar8031_config
                0x000000008204ab94       0xcc drivers/net/phy/built-in.o
 .text.phy_atheros_init
                0x000000008204ac60       0x38 drivers/net/phy/built-in.o
                0x000000008204ac60                phy_atheros_init
 .text.check_reg
                0x000000008204ac98       0x34 drivers/power/built-in.o
                0x000000008204ac98                check_reg
 .text.pmic_alloc
                0x000000008204accc       0x64 drivers/power/built-in.o
                0x000000008204accc                pmic_alloc
 .text.pmic_get
                0x000000008204ad30       0x64 drivers/power/built-in.o
                0x000000008204ad30                pmic_get
 .text.do_pmic  0x000000008204ad94      0x310 drivers/power/built-in.o
 .text.pmic_reg_write
                0x000000008204b0a4       0xe8 drivers/power/built-in.o
                0x000000008204b0a4                pmic_reg_write
 .text.pmic_reg_read
                0x000000008204b18c      0x100 drivers/power/built-in.o
                0x000000008204b18c                pmic_reg_read
 .text.pmic_probe
                0x000000008204b28c       0x44 drivers/power/built-in.o
                0x000000008204b28c                pmic_probe
 .text.power_mc34vr500_init
                0x000000008204b2d0       0x70 drivers/power/pmic/built-in.o
                0x000000008204b2d0                power_mc34vr500_init
 .text.serial_stub_start
                0x000000008204b340        0xc drivers/serial/built-in.o
 .text.serial_stub_stop
                0x000000008204b34c        0xc drivers/serial/built-in.o
 .text.serial_stub_putc
                0x000000008204b358       0x10 drivers/serial/built-in.o
 .text.serial_stub_puts
                0x000000008204b368       0x10 drivers/serial/built-in.o
 .text.serial_stub_getc
                0x000000008204b378        0xc drivers/serial/built-in.o
 .text.serial_stub_tstc
                0x000000008204b384        0xc drivers/serial/built-in.o
 .text.get_current
                0x000000008204b390       0x3c drivers/serial/built-in.o
 .text.serial_null
                0x000000008204b3cc        0x4 drivers/serial/built-in.o
                0x000000008204b3cc                sh_serial_initialize
                0x000000008204b3cc                mcf_serial_initialize
                0x000000008204b3cc                mpc85xx_serial_initialize
                0x000000008204b3cc                pxa_serial_initialize
                0x000000008204b3cc                atmel_serial_initialize
                0x000000008204b3cc                pl01x_serial_initialize
                0x000000008204b3cc                mxc_serial_initialize
 .text.serial_register
                0x000000008204b3d0       0x14 drivers/serial/built-in.o
                0x000000008204b3d0                serial_register
 .text.serial_stdio_init
                0x000000008204b3e4       0xb0 drivers/serial/built-in.o
                0x000000008204b3e4                serial_stdio_init
 .text.serial_assign
                0x000000008204b494       0x50 drivers/serial/built-in.o
                0x000000008204b494                serial_assign
 .text.serial_initialize
                0x000000008204b4e4       0x34 drivers/serial/built-in.o
                0x000000008204b4e4                serial_initialize
 .text.serial_init
                0x000000008204b518       0x24 drivers/serial/built-in.o
                0x000000008204b518                serial_init
 .text.serial_setbrg
                0x000000008204b53c       0x18 drivers/serial/built-in.o
                0x000000008204b53c                serial_setbrg
 .text.on_baudrate
                0x000000008204b554      0x110 drivers/serial/built-in.o
 .text.serial_getc
                0x000000008204b664       0x18 drivers/serial/built-in.o
                0x000000008204b664                serial_getc
 .text.serial_tstc
                0x000000008204b67c       0x18 drivers/serial/built-in.o
                0x000000008204b67c                serial_tstc
 .text.serial_putc
                0x000000008204b694       0x28 drivers/serial/built-in.o
                0x000000008204b694                serial_putc
 .text.serial_puts
                0x000000008204b6bc       0x28 drivers/serial/built-in.o
                0x000000008204b6bc                serial_puts
 .text._serial_putc
                0x000000008204b6e4       0x48 drivers/serial/built-in.o
 .text.eserial1_putc
                0x000000008204b72c        0x8 drivers/serial/built-in.o
 .text.eserial2_putc
                0x000000008204b734        0x8 drivers/serial/built-in.o
 .text.eserial3_putc
                0x000000008204b73c        0x8 drivers/serial/built-in.o
 .text.eserial4_putc
                0x000000008204b744        0x8 drivers/serial/built-in.o
 .text._serial_puts
                0x000000008204b74c       0x38 drivers/serial/built-in.o
 .text.eserial1_puts
                0x000000008204b784        0x8 drivers/serial/built-in.o
 .text.eserial2_puts
                0x000000008204b78c        0x8 drivers/serial/built-in.o
 .text.eserial3_puts
                0x000000008204b794        0x8 drivers/serial/built-in.o
 .text.eserial4_puts
                0x000000008204b79c        0x8 drivers/serial/built-in.o
 .text.eserial3_tstc
                0x000000008204b7a4        0xc drivers/serial/built-in.o
 .text.eserial4_getc
                0x000000008204b7b0       0x20 drivers/serial/built-in.o
 .text._serial_setbrg
                0x000000008204b7d0       0x44 drivers/serial/built-in.o
 .text.eserial1_setbrg
                0x000000008204b814        0x8 drivers/serial/built-in.o
 .text.eserial2_setbrg
                0x000000008204b81c        0x8 drivers/serial/built-in.o
 .text.eserial3_setbrg
                0x000000008204b824        0x8 drivers/serial/built-in.o
 .text.eserial4_setbrg
                0x000000008204b82c        0x8 drivers/serial/built-in.o
 .text.eserial1_init
                0x000000008204b834       0x44 drivers/serial/built-in.o
 .text.eserial2_init
                0x000000008204b878       0x44 drivers/serial/built-in.o
 .text.eserial3_init
                0x000000008204b8bc       0x44 drivers/serial/built-in.o
 .text.eserial4_init
                0x000000008204b900       0x44 drivers/serial/built-in.o
 .text.eserial4_tstc
                0x000000008204b944        0xc drivers/serial/built-in.o
 .text.eserial1_getc
                0x000000008204b950       0x20 drivers/serial/built-in.o
 .text.eserial1_tstc
                0x000000008204b970        0xc drivers/serial/built-in.o
 .text.eserial2_getc
                0x000000008204b97c       0x20 drivers/serial/built-in.o
 .text.eserial2_tstc
                0x000000008204b99c        0xc drivers/serial/built-in.o
 .text.eserial3_getc
                0x000000008204b9a8       0x20 drivers/serial/built-in.o
 .text.default_serial_console
                0x000000008204b9c8        0xc drivers/serial/built-in.o
                0x000000008204b9c8                default_serial_console
 .text.ns16550_serial_initialize
                0x000000008204b9d4       0x3c drivers/serial/built-in.o
                0x000000008204b9d4                ns16550_serial_initialize
 .text.NS16550_setbrg
                0x000000008204ba10       0x44 drivers/serial/built-in.o
 .text.ns16550_calc_divisor
                0x000000008204ba54       0x10 drivers/serial/built-in.o
                0x000000008204ba54                ns16550_calc_divisor
 .text.NS16550_init
                0x000000008204ba64       0x48 drivers/serial/built-in.o
                0x000000008204ba64                NS16550_init
 .text.NS16550_reinit
                0x000000008204baac       0x48 drivers/serial/built-in.o
                0x000000008204baac                NS16550_reinit
 .text.NS16550_putc
                0x000000008204baf4       0x20 drivers/serial/built-in.o
                0x000000008204baf4                NS16550_putc
 .text.NS16550_getc
                0x000000008204bb14       0x20 drivers/serial/built-in.o
                0x000000008204bb14                NS16550_getc
 .text.NS16550_tstc
                0x000000008204bb34       0x14 drivers/serial/built-in.o
                0x000000008204bb34                NS16550_tstc
 .text.spi_set_speed_mode
                0x000000008204bb48       0x94 drivers/spi/built-in.o
 .text.spi_child_pre_probe
                0x000000008204bbdc       0x4c drivers/spi/built-in.o
 .text.spi_post_probe
                0x000000008204bc28       0x40 drivers/spi/built-in.o
 .text.dm_spi_claim_bus
                0x000000008204bc68       0xc4 drivers/spi/built-in.o
                0x000000008204bc68                dm_spi_claim_bus
 .text.dm_spi_release_bus
                0x000000008204bd2c       0x1c drivers/spi/built-in.o
                0x000000008204bd2c                dm_spi_release_bus
 .text.dm_spi_xfer
                0x000000008204bd48       0x30 drivers/spi/built-in.o
                0x000000008204bd48                dm_spi_xfer
 .text.spi_claim_bus
                0x000000008204bd78        0x8 drivers/spi/built-in.o
                0x000000008204bd78                spi_claim_bus
 .text.spi_release_bus
                0x000000008204bd80        0x8 drivers/spi/built-in.o
                0x000000008204bd80                spi_release_bus
 .text.spi_xfer
                0x000000008204bd88        0x8 drivers/spi/built-in.o
                0x000000008204bd88                spi_xfer
 .text.spi_find_chip_select
                0x000000008204bd90       0x60 drivers/spi/built-in.o
                0x000000008204bd90                spi_find_chip_select
 .text.spi_find_bus_and_cs
                0x000000008204bdf0       0x68 drivers/spi/built-in.o
                0x000000008204bdf0                spi_find_bus_and_cs
 .text.spi_get_bus_and_cs
                0x000000008204be58      0x1ac drivers/spi/built-in.o
                0x000000008204be58                spi_get_bus_and_cs
 .text.spi_slave_ofdata_to_platdata
                0x000000008204c004      0x190 drivers/spi/built-in.o
                0x000000008204c004                spi_slave_ofdata_to_platdata
 .text.spi_child_post_bind
                0x000000008204c194       0x44 drivers/spi/built-in.o
 .text.spi_check_buswidth_req.isra.0
                0x000000008204c1d8       0x58 drivers/spi/built-in.o
 .text.spi_mem_default_supports_op
                0x000000008204c230       0x9c drivers/spi/built-in.o
                0x000000008204c230                spi_mem_default_supports_op
 .text.spi_mem_supports_op
                0x000000008204c2cc       0x38 drivers/spi/built-in.o
                0x000000008204c2cc                spi_mem_supports_op
 .text.spi_mem_exec_op
                0x000000008204c304      0x1bc drivers/spi/built-in.o
                0x000000008204c304                spi_mem_exec_op
 .text.spi_mem_adjust_op_size
                0x000000008204c4c0       0xa0 drivers/spi/built-in.o
                0x000000008204c4c0                spi_mem_adjust_op_size
 .text.fsl_qspi_set_speed
                0x000000008204c560        0x8 drivers/spi/built-in.o
 .text.fsl_qspi_child_pre_probe
                0x000000008204c568       0x20 drivers/spi/built-in.o
 .text.fsl_qspi_ofdata_to_platdata
                0x000000008204c588      0x150 drivers/spi/built-in.o
 .text.qspi_read32
                0x000000008204c6d8       0x14 drivers/spi/built-in.o
 .text.qspi_write32
                0x000000008204c6ec       0x14 drivers/spi/built-in.o
 .text.fsl_qspi_set_mode
                0x000000008204c700        0x8 drivers/spi/built-in.o
 .text.qspi_op_read
                0x000000008204c708      0x1a0 drivers/spi/built-in.o
 .text.qspi_xfer
                0x000000008204c8a8      0x658 drivers/spi/built-in.o
                0x000000008204c8a8                qspi_xfer
 .text.fsl_qspi_xfer
                0x000000008204cf00       0x48 drivers/spi/built-in.o
 .text.qspi_module_disable
                0x000000008204cf48       0x3c drivers/spi/built-in.o
                0x000000008204cf48                qspi_module_disable
 .text.fsl_qspi_release_bus
                0x000000008204cf84       0x24 drivers/spi/built-in.o
 .text.fsl_qspi_claim_bus
                0x000000008204cfa8       0x8c drivers/spi/built-in.o
 .text.qspi_cfg_smpr
                0x000000008204d034       0x3c drivers/spi/built-in.o
                0x000000008204d034                qspi_cfg_smpr
 .text.fsl_qspi_probe
                0x000000008204d070      0x454 drivers/spi/built-in.o
 .text.usb_get_dr_mode
                0x000000008204d4c4       0x88 drivers/usb/common/built-in.o
                0x000000008204d4c4                usb_get_dr_mode
 .text.has_erratum_a008751
                0x000000008204d54c       0x54 drivers/usb/common/built-in.o
                0x000000008204d54c                has_erratum_a008751
 .text.has_erratum_a010151
                0x000000008204d5a0       0xb8 drivers/usb/common/built-in.o
                0x000000008204d5a0                has_erratum_a010151
 .text.usb_match_device
                0x000000008204d658       0xc4 drivers/usb/host/built-in.o
 .text.usb_child_post_bind
                0x000000008204d71c       0x88 drivers/usb/host/built-in.o
 .text.usb_match_one_id_intf.isra.0
                0x000000008204d7a4       0x80 drivers/usb/host/built-in.o
 .text.remove_inactive_children.isra.2
                0x000000008204d824       0x80 drivers/usb/host/built-in.o
 .text.usb_disable_asynch
                0x000000008204d8a4       0x1c drivers/usb/host/built-in.o
                0x000000008204d8a4                usb_disable_asynch
 .text.submit_int_msg
                0x000000008204d8c0       0x38 drivers/usb/host/built-in.o
                0x000000008204d8c0                submit_int_msg
 .text.submit_control_msg
                0x000000008204d8f8       0x9c drivers/usb/host/built-in.o
                0x000000008204d8f8                submit_control_msg
 .text.submit_bulk_msg
                0x000000008204d994       0x34 drivers/usb/host/built-in.o
                0x000000008204d994                submit_bulk_msg
 .text.usb_alloc_device
                0x000000008204d9c8       0x24 drivers/usb/host/built-in.o
                0x000000008204d9c8                usb_alloc_device
 .text.usb_reset_root_port
                0x000000008204d9ec       0x24 drivers/usb/host/built-in.o
                0x000000008204d9ec                usb_reset_root_port
 .text.usb_update_hub_device
                0x000000008204da10       0x24 drivers/usb/host/built-in.o
                0x000000008204da10                usb_update_hub_device
 .text.usb_get_max_xfer_size
                0x000000008204da34       0x20 drivers/usb/host/built-in.o
                0x000000008204da34                usb_get_max_xfer_size
 .text.usb_stop
                0x000000008204da54       0xb8 drivers/usb/host/built-in.o
                0x000000008204da54                usb_stop
 .text.usb_get_bus
                0x000000008204db0c       0x3c drivers/usb/host/built-in.o
                0x000000008204db0c                usb_get_bus
 .text.usb_scan_device
                0x000000008204db48      0x2a4 drivers/usb/host/built-in.o
                0x000000008204db48                usb_scan_device
 .text.usb_scan_bus.isra.3
                0x000000008204ddec       0x80 drivers/usb/host/built-in.o
 .text.usb_init
                0x000000008204de6c      0x1c8 drivers/usb/host/built-in.o
                0x000000008204de6c                usb_init
 .text.usb_child_pre_probe
                0x000000008204e034       0x84 drivers/usb/host/built-in.o
                0x000000008204e034                usb_child_pre_probe
 .text.xhci_microframes_to_exponent
                0x000000008204e0b8       0x78 drivers/usb/host/built-in.o
 .text.xhci_get_max_xfer_size
                0x000000008204e130       0x10 drivers/usb/host/built-in.o
 .text.handshake
                0x000000008204e140       0x70 drivers/usb/host/built-in.o
 .text.xhci_reset
                0x000000008204e1b0       0xbc drivers/usb/host/built-in.o
 .text.xhci_submit_bulk_msg
                0x000000008204e26c       0x40 drivers/usb/host/built-in.o
 .text.xhci_submit_int_msg
                0x000000008204e2ac       0x40 drivers/usb/host/built-in.o
 .text.xhci_get_ctrl
                0x000000008204e2ec       0x38 drivers/usb/host/built-in.o
                0x000000008204e2ec                xhci_get_ctrl
 .text.xhci_configure_endpoints
                0x000000008204e324      0x104 drivers/usb/host/built-in.o
 .text.xhci_update_hub_device
                0x000000008204e428      0x164 drivers/usb/host/built-in.o
 .text.xhci_alloc_device
                0x000000008204e58c       0xe0 drivers/usb/host/built-in.o
 .text.xhci_submit_control_msg
                0x000000008204e66c      0xaf4 drivers/usb/host/built-in.o
 .text.xhci_check_maxpacket
                0x000000008204f160       0xc8 drivers/usb/host/built-in.o
                0x000000008204f160                xhci_check_maxpacket
 .text.xhci_register
                0x000000008204f228      0x1a4 drivers/usb/host/built-in.o
                0x000000008204f228                xhci_register
 .text.xhci_deregister
                0x000000008204f3cc       0x6c drivers/usb/host/built-in.o
                0x000000008204f3cc                xhci_deregister
 .text.xhci_link_segments
                0x000000008204f438       0x3c drivers/usb/host/built-in.o
 .text.xhci_ring_free
                0x000000008204f474       0x98 drivers/usb/host/built-in.o
 .text.xhci_flush_cache
                0x000000008204f50c       0x54 drivers/usb/host/built-in.o
                0x000000008204f50c                xhci_flush_cache
 .text.xhci_malloc
                0x000000008204f560       0x7c drivers/usb/host/built-in.o
 .text.xhci_segment_alloc
                0x000000008204f5dc       0x64 drivers/usb/host/built-in.o
 .text.xhci_alloc_container_ctx.isra.5
                0x000000008204f640       0xc8 drivers/usb/host/built-in.o
 .text.xhci_inval_cache
                0x000000008204f708       0x54 drivers/usb/host/built-in.o
                0x000000008204f708                xhci_inval_cache
 .text.xhci_cleanup
                0x000000008204f75c      0x114 drivers/usb/host/built-in.o
                0x000000008204f75c                xhci_cleanup
 .text.xhci_ring_alloc
                0x000000008204f870      0x108 drivers/usb/host/built-in.o
                0x000000008204f870                xhci_ring_alloc
 .text.xhci_alloc_virt_device
                0x000000008204f978      0x100 drivers/usb/host/built-in.o
                0x000000008204f978                xhci_alloc_virt_device
 .text.xhci_mem_init
                0x000000008204fa78      0x2d0 drivers/usb/host/built-in.o
                0x000000008204fa78                xhci_mem_init
 .text.xhci_get_input_control_ctx
                0x000000008204fd48       0x48 drivers/usb/host/built-in.o
                0x000000008204fd48                xhci_get_input_control_ctx
 .text.xhci_get_slot_ctx
                0x000000008204fd90       0x38 drivers/usb/host/built-in.o
                0x000000008204fd90                xhci_get_slot_ctx
 .text.xhci_get_ep_ctx
                0x000000008204fdc8       0x3c drivers/usb/host/built-in.o
                0x000000008204fdc8                xhci_get_ep_ctx
 .text.xhci_endpoint_copy
                0x000000008204fe04       0x5c drivers/usb/host/built-in.o
                0x000000008204fe04                xhci_endpoint_copy
 .text.xhci_slot_copy
                0x000000008204fe60       0x4c drivers/usb/host/built-in.o
                0x000000008204fe60                xhci_slot_copy
 .text.xhci_setup_addressable_virt_dev
                0x000000008204feac      0x2a4 drivers/usb/host/built-in.o
                0x000000008204feac                xhci_setup_addressable_virt_dev
 .text.giveback_first_trb
                0x0000000082050150       0x84 drivers/usb/host/built-in.o
 .text.record_transfer_result
                0x00000000820501d4       0xa8 drivers/usb/host/built-in.o
 .text.queue_trb
                0x000000008205027c      0x168 drivers/usb/host/built-in.o
 .text.prepare_ring
                0x00000000820503e4      0x150 drivers/usb/host/built-in.o
 .text.xhci_queue_command
                0x0000000082050534       0xd0 drivers/usb/host/built-in.o
                0x0000000082050534                xhci_queue_command
 .text.xhci_acknowledge_event
                0x0000000082050604       0xc0 drivers/usb/host/built-in.o
                0x0000000082050604                xhci_acknowledge_event
 .text.xhci_wait_for_event
                0x00000000820506c4      0x12c drivers/usb/host/built-in.o
                0x00000000820506c4                xhci_wait_for_event
 .text.abort_td
                0x00000000820507f0      0x16c drivers/usb/host/built-in.o
 .text.xhci_bulk_tx
                0x000000008205095c      0x344 drivers/usb/host/built-in.o
                0x000000008205095c                xhci_bulk_tx
 .text.xhci_ctrl_tx
                0x0000000082050ca0      0x348 drivers/usb/host/built-in.o
                0x0000000082050ca0                xhci_ctrl_tx
 .text.xhci_dwc3_remove
                0x0000000082050fe8       0x24 drivers/usb/host/built-in.o
 .text.dwc3_set_mode
                0x000000008205100c       0x14 drivers/usb/host/built-in.o
                0x000000008205100c                dwc3_set_mode
 .text.dwc3_core_soft_reset
                0x0000000082051020       0x7c drivers/usb/host/built-in.o
                0x0000000082051020                dwc3_core_soft_reset
 .text.dwc3_core_init
                0x000000008205109c       0x90 drivers/usb/host/built-in.o
                0x000000008205109c                dwc3_core_init
 .text.xhci_dwc3_probe
                0x000000008205112c       0x74 drivers/usb/host/built-in.o
 .text.dwc3_set_fladj
                0x00000000820511a0       0x18 drivers/usb/host/built-in.o
                0x00000000820511a0                dwc3_set_fladj
 .text.xhci_fsl_remove
                0x00000000820511b8       0x24 drivers/usb/host/built-in.o
 .text.xhci_fsl_probe
                0x00000000820511dc      0x114 drivers/usb/host/built-in.o
 .text.env_get_yesno
                0x00000000820512f0       0x4c env/built-in.o
                0x00000000820512f0                env_get_yesno
 .text.env_get_default
                0x000000008205133c       0x3c env/built-in.o
                0x000000008205133c                env_get_default
 .text.set_default_env
                0x0000000082051378       0x98 env/built-in.o
                0x0000000082051378                set_default_env
 .text.set_default_vars
                0x0000000082051410       0x2c env/built-in.o
                0x0000000082051410                set_default_vars
 .text.env_import
                0x000000008205143c       0xcc env/built-in.o
                0x000000008205143c                env_import
 .text.env_export
                0x0000000082051508       0x80 env/built-in.o
                0x0000000082051508                env_export
 .text.env_relocate
                0x0000000082051588       0x30 env/built-in.o
                0x0000000082051588                env_relocate
 .text.env_complete
                0x00000000820515b8      0x1b0 env/built-in.o
                0x00000000820515b8                env_complete
 .text.env_driver_lookup
                0x0000000082051768       0x6c env/built-in.o
 .text.env_get_char_spec
                0x00000000820517d4        0xc env/built-in.o
                0x00000000820517d4                env_get_char_spec
 .text.env_get_char
                0x00000000820517e0       0x20 env/built-in.o
                0x00000000820517e0                env_get_char
 .text.env_load
                0x0000000082051800       0xd0 env/built-in.o
                0x0000000082051800                env_load
 .text.env_save
                0x00000000820518d0       0x94 env/built-in.o
                0x00000000820518d0                env_save
 .text.env_init
                0x0000000082051964       0xa0 env/built-in.o
                0x0000000082051964                env_init
 .text.regex_callback
                0x0000000082051a04      0x14c env/built-in.o
 .text.env_attr_walk
                0x0000000082051b50      0x148 env/built-in.o
                0x0000000082051b50                env_attr_walk
 .text.env_attr_lookup
                0x0000000082051c98       0x7c env/built-in.o
                0x0000000082051c98                env_attr_lookup
 .text.clear_callback
                0x0000000082051d14        0xc env/built-in.o
 .text.find_env_callback
                0x0000000082051d20       0x7c env/built-in.o
 .text.on_callbacks
                0x0000000082051d9c       0x60 env/built-in.o
 .text.set_callback
                0x0000000082051dfc       0x90 env/built-in.o
 .text.env_callback_init
                0x0000000082051e8c       0xb4 env/built-in.o
                0x0000000082051e8c                env_callback_init
 .text.skip_num
                0x0000000082051f40       0x68 env/built-in.o
 .text.clear_flags
                0x0000000082051fa8        0xc env/built-in.o
 .text.on_flags
                0x0000000082051fb4       0x60 env/built-in.o
 .text.env_flags_parse_vartype
                0x0000000082052014       0x58 env/built-in.o
                0x0000000082052014                env_flags_parse_vartype
 .text.env_flags_parse_varaccess
                0x000000008205206c       0x5c env/built-in.o
                0x000000008205206c                env_flags_parse_varaccess
 .text.set_flags
                0x00000000820520c8       0xac env/built-in.o
 .text.eth_validate_ethaddr_str
                0x0000000082052174       0x98 env/built-in.o
                0x0000000082052174                eth_validate_ethaddr_str
 .text.env_flags_init
                0x000000008205220c       0xbc env/built-in.o
                0x000000008205220c                env_flags_init
 .text.env_flags_validate
                0x00000000820522c8      0x278 env/built-in.o
                0x00000000820522c8                env_flags_validate
 .text.mmc_get_env_addr
                0x0000000082052540       0xf8 env/built-in.o
                0x0000000082052540                mmc_get_env_addr
 .text.env_mmc_save
                0x0000000082052638      0x120 env/built-in.o
 .text.env_mmc_load
                0x0000000082052758      0x118 env/built-in.o
 .text.setup_flash_device
                0x0000000082052870       0x64 env/built-in.o
 .text.env_sf_load
                0x00000000820528d4       0xc4 env/built-in.o
 .text.env_sf_save.part.0
                0x0000000082052998      0x110 env/built-in.o
 .text.env_sf_save
                0x0000000082052aa8       0x20 env/built-in.o
 .text.env_sf_get_env_addr
                0x0000000082052ac8        0x8 env/built-in.o
                0x0000000082052ac8                env_sf_get_env_addr
 .text.env_sf_init
                0x0000000082052ad0       0x68 env/built-in.o
 .text.fs_probe_unsupported
                0x0000000082052b38       0x20 fs/built-in.o
 .text.fs_ls_unsupported
                0x0000000082052b58        0x8 fs/built-in.o
 .text.fs_exists_unsupported
                0x0000000082052b60        0x8 fs/built-in.o
 .text.fs_size_unsupported
                0x0000000082052b68        0x8 fs/built-in.o
 .text.fs_read_unsupported
                0x0000000082052b70        0x8 fs/built-in.o
 .text.fs_close_unsupported
                0x0000000082052b78        0x4 fs/built-in.o
 .text.fs_opendir_unsupported
                0x0000000082052b7c        0x8 fs/built-in.o
 .text.fs_get_info
                0x0000000082052b84       0x34 fs/built-in.o
 .text.fs_close
                0x0000000082052bb8       0x30 fs/built-in.o
 .text.fs_read_lmb_check.isra.0
                0x0000000082052be8       0x9c fs/built-in.o
 .text.fs_write_unsupported
                0x0000000082052c84        0x8 fs/built-in.o
 .text.fs_mkdir_unsupported
                0x0000000082052c8c        0x8 fs/built-in.o
 .text.fs_uuid_unsupported
                0x0000000082052c94        0x8 fs/built-in.o
 .text.fs_unlink_unsupported
                0x0000000082052c9c        0x8 fs/built-in.o
 .text.fs_set_blk_dev
                0x0000000082052ca4       0xd4 fs/built-in.o
                0x0000000082052ca4                fs_set_blk_dev
 .text.fs_set_blk_dev_with_part
                0x0000000082052d78       0xb0 fs/built-in.o
                0x0000000082052d78                fs_set_blk_dev_with_part
 .text.fs_ls    0x0000000082052e28       0x44 fs/built-in.o
                0x0000000082052e28                fs_ls
 .text.fs_exists
                0x0000000082052e6c       0x40 fs/built-in.o
                0x0000000082052e6c                fs_exists
 .text.fs_size  0x0000000082052eac       0x48 fs/built-in.o
                0x0000000082052eac                fs_size
 .text.fs_read  0x0000000082052ef4       0x58 fs/built-in.o
                0x0000000082052ef4                fs_read
 .text.fs_write
                0x0000000082052f4c       0x88 fs/built-in.o
                0x0000000082052f4c                fs_write
 .text.fs_opendir
                0x0000000082052fd4       0x7c fs/built-in.o
                0x0000000082052fd4                fs_opendir
 .text.fs_readdir
                0x0000000082053050       0x68 fs/built-in.o
                0x0000000082053050                fs_readdir
 .text.fs_closedir
                0x00000000820530b8       0x48 fs/built-in.o
                0x00000000820530b8                fs_closedir
 .text.fs_ls_generic
                0x0000000082053100       0xc0 fs/built-in.o
 .text.fs_unlink
                0x00000000820531c0       0x44 fs/built-in.o
                0x00000000820531c0                fs_unlink
 .text.fs_mkdir
                0x0000000082053204       0x44 fs/built-in.o
                0x0000000082053204                fs_mkdir
 .text.do_size  0x0000000082053248       0x6c fs/built-in.o
                0x0000000082053248                do_size
 .text.do_load  0x00000000820532b4      0x23c fs/built-in.o
                0x00000000820532b4                do_load
 .text.do_ls    0x00000000820534f0       0x84 fs/built-in.o
                0x00000000820534f0                do_ls
 .text.file_exists
                0x0000000082053574       0x3c fs/built-in.o
                0x0000000082053574                file_exists
 .text.do_save  0x00000000820535b0      0x14c fs/built-in.o
                0x00000000820535b0                do_save
 .text.do_fs_type
                0x00000000820536fc       0x90 fs/built-in.o
                0x00000000820536fc                do_fs_type
 .text.get_fs   0x000000008205378c        0xc fs/built-in.o
                0x000000008205378c                get_fs
 .text.ext4fs_free_node
                0x0000000082053798       0x24 fs/built-in.o
                0x0000000082053798                ext4fs_free_node
 .text.ext4fs_read_file
                0x00000000820537bc      0x2b4 fs/built-in.o
                0x00000000820537bc                ext4fs_read_file
 .text.ext4fs_ls
                0x0000000082053a70       0x90 fs/built-in.o
                0x0000000082053a70                ext4fs_ls
 .text.ext4fs_exists
                0x0000000082053b00       0x20 fs/built-in.o
                0x0000000082053b00                ext4fs_exists
 .text.ext4fs_size
                0x0000000082053b20        0x4 fs/built-in.o
                0x0000000082053b20                ext4fs_size
 .text.ext4fs_read
                0x0000000082053b24       0x30 fs/built-in.o
                0x0000000082053b24                ext4fs_read
 .text.ext4fs_probe
                0x0000000082053b54       0x3c fs/built-in.o
                0x0000000082053b54                ext4fs_probe
 .text.ext4_read_file
                0x0000000082053b90       0x7c fs/built-in.o
                0x0000000082053b90                ext4_read_file
 .text.ext4fs_uuid
                0x0000000082053c0c       0x38 fs/built-in.o
                0x0000000082053c0c                ext4fs_uuid
 .text.ext4fs_bg_get_inode_table_id
                0x0000000082053c44       0x20 fs/built-in.o
                0x0000000082053c44                ext4fs_bg_get_inode_table_id
 .text.ext4fs_read_inode
                0x0000000082053c64      0x108 fs/built-in.o
                0x0000000082053c64                ext4fs_read_inode
 .text.read_allocated_block
                0x0000000082053d6c      0x834 fs/built-in.o
                0x0000000082053d6c                read_allocated_block
 .text.ext4fs_reinit_global
                0x00000000820545a0       0x90 fs/built-in.o
                0x00000000820545a0                ext4fs_reinit_global
 .text.ext4fs_close
                0x0000000082054630       0x4c fs/built-in.o
                0x0000000082054630                ext4fs_close
 .text.ext4fs_iterate_dir
                0x000000008205467c      0x290 fs/built-in.o
                0x000000008205467c                ext4fs_iterate_dir
 .text.ext4fs_find_file1
                0x000000008205490c      0x290 fs/built-in.o
 .text.ext4fs_find_file
                0x0000000082054b9c       0x74 fs/built-in.o
                0x0000000082054b9c                ext4fs_find_file
 .text.ext4fs_open
                0x0000000082054c10       0xa0 fs/built-in.o
                0x0000000082054c10                ext4fs_open
 .text.ext4fs_mount
                0x0000000082054cb0       0xec fs/built-in.o
                0x0000000082054cb0                ext4fs_mount
 .text.ext4fs_set_blk_dev
                0x0000000082054d9c       0x5c fs/built-in.o
                0x0000000082054d9c                ext4fs_set_blk_dev
 .text.ext4fs_devread
                0x0000000082054df8       0x50 fs/built-in.o
                0x0000000082054df8                ext4fs_devread
 .text.ext4_read_superblock
                0x0000000082054e48       0x48 fs/built-in.o
                0x0000000082054e48                ext4_read_superblock
 .text.downcase
                0x0000000082054e90       0x3c fs/built-in.o
 .text.disk_read
                0x0000000082054ecc       0x64 fs/built-in.o
 .text.get_fatent
                0x0000000082054f30      0x158 fs/built-in.o
 .text.next_dent
                0x0000000082055088      0x140 fs/built-in.o
 .text.get_cluster
                0x00000000820551c8      0x174 fs/built-in.o
 .text.read_bootsectandvi
                0x000000008205533c      0x134 fs/built-in.o
 .text.fat_itr_root
                0x0000000082055470      0x1d8 fs/built-in.o
 .text.fat_itr_next
                0x0000000082055648      0x2b0 fs/built-in.o
 .text.fat_itr_resolve
                0x00000000820558f8      0x1e0 fs/built-in.o
 .text.fat_set_blk_dev
                0x0000000082055ad8       0xcc fs/built-in.o
                0x0000000082055ad8                fat_set_blk_dev
 .text.file_fat_detectfs
                0x0000000082055ba4      0x140 fs/built-in.o
                0x0000000082055ba4                file_fat_detectfs
 .text.fat_exists
                0x0000000082055ce4       0x80 fs/built-in.o
                0x0000000082055ce4                fat_exists
 .text.fat_size
                0x0000000082055d64       0xc4 fs/built-in.o
                0x0000000082055d64                fat_size
 .text.file_fat_read_at
                0x0000000082055e28      0x37c fs/built-in.o
                0x0000000082055e28                file_fat_read_at
 .text.fat_read_file
                0x00000000820561a4       0x48 fs/built-in.o
                0x00000000820561a4                fat_read_file
 .text.fat_opendir
                0x00000000820561ec       0xac fs/built-in.o
                0x00000000820561ec                fat_opendir
 .text.fat_readdir
                0x0000000082056298       0x8c fs/built-in.o
                0x0000000082056298                fat_readdir
 .text.fat_closedir
                0x0000000082056324       0x28 fs/built-in.o
                0x0000000082056324                fat_closedir
 .text.fat_close
                0x000000008205634c        0x4 fs/built-in.o
                0x000000008205634c                fat_close
 .text.fs_devread
                0x0000000082056350      0x250 fs/built-in.o
                0x0000000082056350                fs_devread
 .text.efi_uc_destroy
                0x00000000820565a0       0x20 lib/built-in.o
 .text.efi_uc_init
                0x00000000820565c0       0x20 lib/built-in.o
 .text.check_node_type
                0x00000000820565e0       0x80 lib/built-in.o
 .text.efi_uc_start
                0x0000000082056660       0xe4 lib/built-in.o
 .text.efi_uc_supported
                0x0000000082056744       0xd0 lib/built-in.o
 .text.disconnect_child
                0x0000000082056814       0x84 lib/built-in.o
 .text.efi_uc_stop
                0x0000000082056898      0x164 lib/built-in.o
 .text.efi_driver_init
                0x00000000820569fc      0x12c lib/built-in.o
                0x00000000820569fc                efi_driver_init
 .text.efi_bl_write
                0x0000000082056b28       0x6c lib/built-in.o
 .text.efi_bl_read
                0x0000000082056b94       0x6c lib/built-in.o
 .text.efi_bl_bind
                0x0000000082056c00      0x128 lib/built-in.o
 .text.get_var.constprop.0
                0x0000000082056d28       0xd4 lib/built-in.o
 .text.efi_deserialize_load_option
                0x0000000082056dfc       0x74 lib/built-in.o
                0x0000000082056dfc                efi_deserialize_load_option
 .text.efi_bootmgr_load
                0x0000000082056e70      0x17c lib/built-in.o
                0x0000000082056e70                efi_bootmgr_load
 .text.efi_is_event
                0x0000000082056fec       0x40 lib/built-in.o
 .text.__efi_entry_check
                0x000000008205702c       0x2c lib/built-in.o
                0x000000008205702c                __efi_entry_check
 .text.__efi_exit_check
                0x0000000082057058       0x24 lib/built-in.o
                0x0000000082057058                __efi_exit_check
 .text.efi_queue_event
                0x000000008205707c       0x60 lib/built-in.o
 .text.efi_start_image
                0x00000000820570dc       0x9c lib/built-in.o
                0x00000000820570dc                efi_start_image
 .text.efi_set_mem
                0x0000000082057178       0x30 lib/built-in.o
 .text.efi_copy_mem
                0x00000000820571a8       0x30 lib/built-in.o
 .text.efi_calculate_crc32
                0x00000000820571d8       0x44 lib/built-in.o
 .text.efi_set_watchdog_timer
                0x000000008205721c       0x2c lib/built-in.o
 .text.efi_stall
                0x0000000082057248       0x28 lib/built-in.o
 .text.efi_get_next_monotonic_count
                0x0000000082057270       0x34 lib/built-in.o
 .text.efi_register_protocol_notify
                0x00000000820572a4       0x20 lib/built-in.o
 .text.efi_close_event
                0x00000000820572c4       0x60 lib/built-in.o
 .text.efi_free_pool_ext
                0x0000000082057324       0x2c lib/built-in.o
 .text.efi_allocate_pool_ext
                0x0000000082057350       0x3c lib/built-in.o
 .text.efi_get_memory_map_ext
                0x000000008205738c       0x3c lib/built-in.o
 .text.efi_free_pages_ext
                0x00000000820573c8       0x34 lib/built-in.o
 .text.efi_allocate_pages_ext
                0x00000000820573fc       0x3c lib/built-in.o
 .text.efi_raise_tpl
                0x0000000082057438       0x38 lib/built-in.o
 .text.efi_save_gd
                0x0000000082057470        0xc lib/built-in.o
                0x0000000082057470                efi_save_gd
 .text.efi_restore_gd
                0x000000008205747c       0x14 lib/built-in.o
                0x000000008205747c                efi_restore_gd
 .text.efi_exit
                0x0000000082057490       0x38 lib/built-in.o
 .text.is_valid_tpl
                0x00000000820574c8       0x38 lib/built-in.o
                0x00000000820574c8                is_valid_tpl
 .text.efi_signal_event
                0x0000000082057500      0x104 lib/built-in.o
                0x0000000082057500                efi_signal_event
 .text.efi_exit_boot_services
                0x0000000082057604      0x114 lib/built-in.o
 .text.efi_signal_event_ext
                0x0000000082057718       0x54 lib/built-in.o
 .text.efi_add_handle
                0x000000008205776c       0x2c lib/built-in.o
                0x000000008205776c                efi_add_handle
 .text.efi_create_handle
                0x0000000082057798       0x48 lib/built-in.o
                0x0000000082057798                efi_create_handle
 .text.efi_create_event
                0x00000000820577e0      0x118 lib/built-in.o
                0x00000000820577e0                efi_create_event
 .text.efi_create_event_ex
                0x00000000820578f8       0x3c lib/built-in.o
                0x00000000820578f8                efi_create_event_ex
 .text.efi_create_event_ext
                0x0000000082057934       0x44 lib/built-in.o
 .text.efi_timer_check
                0x0000000082057978       0xa4 lib/built-in.o
                0x0000000082057978                efi_timer_check
 .text.efi_check_event
                0x0000000082057a1c       0x80 lib/built-in.o
 .text.efi_wait_for_event
                0x0000000082057a9c       0xf4 lib/built-in.o
 .text.efi_restore_tpl
                0x0000000082057b90       0x30 lib/built-in.o
 .text.efi_set_timer
                0x0000000082057bc0       0x80 lib/built-in.o
                0x0000000082057bc0                efi_set_timer
 .text.efi_set_timer_ext
                0x0000000082057c40       0x3c lib/built-in.o
 .text.efi_search_obj
                0x0000000082057c7c       0x30 lib/built-in.o
                0x0000000082057c7c                efi_search_obj
 .text.efi_search_protocol
                0x0000000082057cac       0x94 lib/built-in.o
                0x0000000082057cac                efi_search_protocol
 .text.efi_remove_protocol
                0x0000000082057d40       0x88 lib/built-in.o
                0x0000000082057d40                efi_remove_protocol
 .text.efi_locate_protocol
                0x0000000082057dc8       0xa0 lib/built-in.o
 .text.efi_open_protocol_information
                0x0000000082057e68      0x10c lib/built-in.o
 .text.efi_close_protocol
                0x0000000082057f74       0xb8 lib/built-in.o
 .text.efi_locate_handle
                0x000000008205802c      0x138 lib/built-in.o
 .text.efi_locate_handle_buffer
                0x0000000082058164       0xdc lib/built-in.o
 .text.efi_locate_device_path
                0x0000000082058240      0x140 lib/built-in.o
 .text.efi_locate_handle_ext
                0x0000000082058380       0x3c lib/built-in.o
 .text.efi_remove_all_protocols
                0x00000000820583bc       0x6c lib/built-in.o
                0x00000000820583bc                efi_remove_all_protocols
 .text.efi_delete_handle
                0x0000000082058428       0x3c lib/built-in.o
                0x0000000082058428                efi_delete_handle
 .text.efi_protocols_per_handle
                0x0000000082058464       0xe0 lib/built-in.o
 .text.efi_disconnect_controller
                0x0000000082058544      0x264 lib/built-in.o
 .text.efi_disconnect_all_drivers
                0x00000000820587a8      0x194 lib/built-in.o
 .text.efi_open_protocol
                0x000000008205893c      0x264 lib/built-in.o
 .text.efi_bind_controller
                0x0000000082058ba0       0xc8 lib/built-in.o
 .text.efi_handle_protocol
                0x0000000082058c68       0x10 lib/built-in.o
 .text.efi_uninstall_protocol
                0x0000000082058c78       0xdc lib/built-in.o
 .text.efi_uninstall_protocol_interface
                0x0000000082058d54       0x70 lib/built-in.o
 .text.efi_connect_controller
                0x0000000082058dc4      0x1c8 lib/built-in.o
 .text.efi_unload_image
                0x0000000082058f8c       0x3c lib/built-in.o
 .text.efi_add_protocol
                0x0000000082058fc8       0xb8 lib/built-in.o
                0x0000000082058fc8                efi_add_protocol
 .text.efi_reinstall_protocol_interface
                0x0000000082059080       0x88 lib/built-in.o
 .text.efi_install_protocol_interface
                0x0000000082059108       0x88 lib/built-in.o
 .text.efi_uninstall_multiple_protocol_interfaces
                0x0000000082059190      0x1d0 lib/built-in.o
 .text.efi_install_multiple_protocol_interfaces
                0x0000000082059360      0x1c4 lib/built-in.o
 .text.efi_install_configuration_table
                0x0000000082059524      0x1d4 lib/built-in.o
                0x0000000082059524                efi_install_configuration_table
 .text.efi_install_configuration_table_ext
                0x00000000820596f8       0x34 lib/built-in.o
 .text.efi_setup_loaded_image
                0x000000008205972c      0x110 lib/built-in.o
                0x000000008205972c                efi_setup_loaded_image
 .text.efi_load_image_from_path
                0x000000008205983c      0x188 lib/built-in.o
                0x000000008205983c                efi_load_image_from_path
 .text.efi_load_image
                0x00000000820599c4      0x164 lib/built-in.o
 .text.efi_initialize_system_table
                0x0000000082059b28       0x58 lib/built-in.o
                0x0000000082059b28                efi_initialize_system_table
 .text.efi_cout_enable_cursor
                0x0000000082059b80       0x44 lib/built-in.o
 .text.efi_cout_set_cursor_position
                0x0000000082059bc4       0xb0 lib/built-in.o
 .text.efi_cout_clear_screen
                0x0000000082059c74       0x34 lib/built-in.o
 .text.efi_cout_set_attribute
                0x0000000082059ca8       0x68 lib/built-in.o
 .text.efi_cout_test_string
                0x0000000082059d10       0x1c lib/built-in.o
 .text.efi_cout_reset
                0x0000000082059d2c       0x44 lib/built-in.o
 .text.efi_cin_set_state
                0x0000000082059d70       0x1c lib/built-in.o
 .text.efi_cout_output_string
                0x0000000082059d8c      0x154 lib/built-in.o
 .text.efi_cin_unregister_key_notify
                0x0000000082059ee0       0x84 lib/built-in.o
 .text.efi_cin_empty_buffer
                0x0000000082059f64       0x28 lib/built-in.o
 .text.efi_cin_reset
                0x0000000082059f8c       0x40 lib/built-in.o
 .text.efi_cin_reset_ex
                0x0000000082059fcc       0x40 lib/built-in.o
 .text.efi_cin_register_key_notify
                0x000000008205a00c       0xb4 lib/built-in.o
 .text.term_get_char
                0x000000008205a0c0       0x50 lib/built-in.o
 .text.efi_cout_set_mode
                0x000000008205a110       0x50 lib/built-in.o
 .text.efi_cout_query_mode
                0x000000008205a160       0x98 lib/built-in.o
 .text.set_shift_mask
                0x000000008205a1f8       0x5c lib/built-in.o
                0x000000008205a1f8                set_shift_mask
 .text.analyze_modifiers.constprop.6
                0x000000008205a254       0xa8 lib/built-in.o
 .text.efi_cin_check
                0x000000008205a2fc      0x2ec lib/built-in.o
 .text.efi_cin_read_key_stroke
                0x000000008205a5e8       0x8c lib/built-in.o
 .text.efi_console_timer_notify
                0x000000008205a674       0x18 lib/built-in.o
 .text.efi_cin_read_key_stroke_ex
                0x000000008205a68c       0x94 lib/built-in.o
 .text.efi_key_notify
                0x000000008205a720       0x18 lib/built-in.o
 .text.efi_console_register
                0x000000008205a738      0x30c lib/built-in.o
                0x000000008205a738                efi_console_register
 .text.dp_size  0x000000008205aa44       0xa8 lib/built-in.o
 .text.dp_alloc
                0x000000008205aaec       0x4c lib/built-in.o
 .text.dp_part_size
                0x000000008205ab38       0x60 lib/built-in.o
 .text.dp_part_node
                0x000000008205ab98      0x1fc lib/built-in.o
 .text.dp_fill  0x000000008205ad94      0x200 lib/built-in.o
 .text.dp_part_fill
                0x000000008205af94       0x74 lib/built-in.o
 .text.efi_dp_next
                0x000000008205b008       0x3c lib/built-in.o
                0x000000008205b008                efi_dp_next
 .text.efi_dp_match
                0x000000008205b044       0x80 lib/built-in.o
                0x000000008205b044                efi_dp_match
 .text.efi_dp_last_node
                0x000000008205b0c4       0x48 lib/built-in.o
                0x000000008205b0c4                efi_dp_last_node
 .text.efi_dp_instance_size
                0x000000008205b10c       0x4c lib/built-in.o
                0x000000008205b10c                efi_dp_instance_size
 .text.find_obj
                0x000000008205b158      0x118 lib/built-in.o
 .text.efi_dp_find_obj
                0x000000008205b270       0x5c lib/built-in.o
                0x000000008205b270                efi_dp_find_obj
 .text.efi_dp_size
                0x000000008205b2cc       0x44 lib/built-in.o
                0x000000008205b2cc                efi_dp_size
 .text.efi_dp_dup
                0x000000008205b310       0x58 lib/built-in.o
                0x000000008205b310                efi_dp_dup
 .text.efi_dp_append
                0x000000008205b368       0xb8 lib/built-in.o
                0x000000008205b368                efi_dp_append
 .text.efi_dp_append_node
                0x000000008205b420       0xf8 lib/built-in.o
                0x000000008205b420                efi_dp_append_node
 .text.efi_dp_create_device_node
                0x000000008205b518       0x50 lib/built-in.o
                0x000000008205b518                efi_dp_create_device_node
 .text.efi_dp_append_instance
                0x000000008205b568       0xc4 lib/built-in.o
                0x000000008205b568                efi_dp_append_instance
 .text.efi_dp_get_next_instance
                0x000000008205b62c       0xa0 lib/built-in.o
                0x000000008205b62c                efi_dp_get_next_instance
 .text.efi_dp_is_multi_instance
                0x000000008205b6cc       0x38 lib/built-in.o
                0x000000008205b6cc                efi_dp_is_multi_instance
 .text.efi_dp_from_part
                0x000000008205b704       0x60 lib/built-in.o
                0x000000008205b704                efi_dp_from_part
 .text.efi_dp_part_node
                0x000000008205b764       0x54 lib/built-in.o
                0x000000008205b764                efi_dp_part_node
 .text.efi_dp_from_file
                0x000000008205b7b8       0xd4 lib/built-in.o
                0x000000008205b7b8                efi_dp_from_file
 .text.efi_dp_from_eth
                0x000000008205b88c       0x94 lib/built-in.o
                0x000000008205b88c                efi_dp_from_eth
 .text.efi_dp_from_mem
                0x000000008205b920      0x104 lib/built-in.o
                0x000000008205b920                efi_dp_from_mem
 .text.efi_dp_split_file_path
                0x000000008205ba24       0xb0 lib/built-in.o
                0x000000008205ba24                efi_dp_split_file_path
 .text.efi_dp_from_name
                0x000000008205bad4      0x120 lib/built-in.o
                0x000000008205bad4                efi_dp_from_name
 .text.efi_str_to_u16
                0x000000008205bbf4       0x60 lib/built-in.o
 .text.efi_convert_single_device_node_to_text
                0x000000008205bc54      0x470 lib/built-in.o
 .text.efi_convert_device_path_to_text
                0x000000008205c0c4       0x90 lib/built-in.o
 .text.efi_convert_device_node_to_text
                0x000000008205c154       0x54 lib/built-in.o
 .text.efi_dp_str
                0x000000008205c1a8       0x3c lib/built-in.o
                0x000000008205c1a8                efi_dp_str
 .text.create_device_node
                0x000000008205c1e4       0x4c lib/built-in.o
 .text.is_device_path_multi_instance
                0x000000008205c230       0x34 lib/built-in.o
 .text.get_next_device_path_instance
                0x000000008205c264       0x3c lib/built-in.o
 .text.append_device_path_instance
                0x000000008205c2a0       0x3c lib/built-in.o
 .text.append_device_node
                0x000000008205c2dc       0x3c lib/built-in.o
 .text.append_device_path
                0x000000008205c318       0x3c lib/built-in.o
 .text.duplicate_device_path
                0x000000008205c354       0x34 lib/built-in.o
 .text.get_device_path_size
                0x000000008205c388       0x40 lib/built-in.o
 .text.efi_file_flush
                0x000000008205c3c8       0x1c lib/built-in.o
 .text.efi_file_setinfo
                0x000000008205c3e4       0x1c lib/built-in.o
 .text.efi_file_getpos
                0x000000008205c400       0x48 lib/built-in.o
 .text.set_blk_dev.isra.0
                0x000000008205c448        0xc lib/built-in.o
 .text.file_open
                0x000000008205c454      0x2ac lib/built-in.o
 .text.efi_open_volume
                0x000000008205c700       0x48 lib/built-in.o
 .text.efi_file_open
                0x000000008205c748       0xb8 lib/built-in.o
 .text.efi_file_getinfo
                0x000000008205c800      0x1c8 lib/built-in.o
 .text.efi_file_setpos
                0x000000008205c9c8       0x88 lib/built-in.o
 .text.efi_file_write
                0x000000008205ca50       0x80 lib/built-in.o
 .text.efi_file_read
                0x000000008205cad0      0x1a0 lib/built-in.o
 .text.efi_file_delete
                0x000000008205cc70       0x60 lib/built-in.o
 .text.efi_file_close
                0x000000008205ccd0       0x38 lib/built-in.o
 .text.efi_file_from_path
                0x000000008205cd08      0x10c lib/built-in.o
                0x000000008205cd08                efi_file_from_path
 .text.efi_simple_file_system
                0x000000008205ce14       0x50 lib/built-in.o
                0x000000008205ce14                efi_simple_file_system
 .text.efi_set_code_and_data_type
                0x000000008205ce64       0x8c lib/built-in.o
 .text.efi_load_pe
                0x000000008205cef0      0x338 lib/built-in.o
                0x000000008205cef0                efi_load_pe
 .text.efi_mem_cmp
                0x000000008205d228       0x1c lib/built-in.o
 .text.efi_find_free_memory
                0x000000008205d244       0x6c lib/built-in.o
 .text.efi_add_memory_map
                0x000000008205d2b0      0x2b8 lib/built-in.o
                0x000000008205d2b0                efi_add_memory_map
 .text.efi_allocate_pages
                0x000000008205d568       0xac lib/built-in.o
                0x000000008205d568                efi_allocate_pages
 .text.efi_alloc
                0x000000008205d614       0x34 lib/built-in.o
                0x000000008205d614                efi_alloc
 .text.efi_free_pages
                0x000000008205d648       0x38 lib/built-in.o
                0x000000008205d648                efi_free_pages
 .text.efi_allocate_pool
                0x000000008205d680       0x70 lib/built-in.o
                0x000000008205d680                efi_allocate_pool
 .text.efi_free_pool
                0x000000008205d6f0       0x1c lib/built-in.o
                0x000000008205d6f0                efi_free_pool
 .text.efi_get_memory_map
                0x000000008205d70c       0xe0 lib/built-in.o
                0x000000008205d70c                efi_get_memory_map
 .text.efi_memory_init
                0x000000008205d7ec       0x74 lib/built-in.o
                0x000000008205d7ec                efi_memory_init
 .text.efi_root_node_register
                0x000000008205d860      0x158 lib/built-in.o
                0x000000008205d860                efi_root_node_register
 .text.efi_reset_system_boottime
                0x000000008205d9b8       0x94 lib/built-in.o
 .text.efi_get_time_boottime
                0x000000008205da4c       0x1c lib/built-in.o
 .text.efi_set_virtual_address_map
                0x000000008205da68      0x198 lib/built-in.o
 .text.efi_add_runtime_mmio
                0x000000008205dc00       0x90 lib/built-in.o
                0x000000008205dc00                efi_add_runtime_mmio
 .text.efi_init_obj_list
                0x000000008205dc90       0x78 lib/built-in.o
                0x000000008205dc90                efi_init_obj_list
 .text.metai_match
                0x000000008205dd08      0x110 lib/built-in.o
 .text.efi_str_to_fat
                0x000000008205de18       0xe0 lib/built-in.o
 .text.efi_fat_to_str
                0x000000008205def8       0x6c lib/built-in.o
 .text.efi_str_upr
                0x000000008205df64       0x34 lib/built-in.o
 .text.efi_metai_match
                0x000000008205df98       0x3c lib/built-in.o
 .text.efi_stri_coll
                0x000000008205dfd4       0x7c lib/built-in.o
 .text.efi_str_lwr
                0x000000008205e050       0x34 lib/built-in.o
 .text.efi_to_native
                0x000000008205e084       0x9c lib/built-in.o
 .text.prefix   0x000000008205e120       0x50 lib/built-in.o
 .text.parse_attr.part.0
                0x000000008205e170       0xc0 lib/built-in.o
 .text.efi_get_variable
                0x000000008205e230      0x238 lib/built-in.o
                0x000000008205e230                efi_get_variable
 .text.efi_get_next_variable_name
                0x000000008205e468      0x27c lib/built-in.o
                0x000000008205e468                efi_get_next_variable_name
 .text.efi_set_variable
                0x000000008205e6e4      0x238 lib/built-in.o
                0x000000008205e6e4                efi_set_variable
 .text.efi_watchdog_timer_notify
                0x000000008205e91c       0x44 lib/built-in.o
 .text.efi_set_watchdog
                0x000000008205e960       0x30 lib/built-in.o
                0x000000008205e960                efi_set_watchdog
 .text.efi_watchdog_register
                0x000000008205e990       0x80 lib/built-in.o
                0x000000008205e990                efi_watchdog_register
 .text.efi_disk_flush_blocks
                0x000000008205ea10       0x1c lib/built-in.o
 .text.efi_disk_reset
                0x000000008205ea2c       0x1c lib/built-in.o
 .text.efi_disk_add_dev.isra.0.part.1
                0x000000008205ea48      0x1c8 lib/built-in.o
 .text.efi_disk_read_blocks
                0x000000008205ec10       0x94 lib/built-in.o
 .text.efi_disk_write_blocks
                0x000000008205eca4       0x94 lib/built-in.o
 .text.efi_fs_from_path
                0x000000008205ed38       0x74 lib/built-in.o
                0x000000008205ed38                efi_fs_from_path
 .text.efi_disk_create_partitions
                0x000000008205edac       0xfc lib/built-in.o
                0x000000008205edac                efi_disk_create_partitions
 .text.efi_disk_register
                0x000000008205eea8      0x12c lib/built-in.o
                0x000000008205eea8                efi_disk_register
 .text.efi_net_push
                0x000000008205efd4       0x1c lib/built-in.o
 .text.efi_network_timer_notify
                0x000000008205eff0       0x58 lib/built-in.o
 .text.efi_net_nvdata
                0x000000008205f048       0x1c lib/built-in.o
 .text.efi_net_mcastiptomac
                0x000000008205f064       0x20 lib/built-in.o
 .text.efi_net_statistics
                0x000000008205f084       0x1c lib/built-in.o
 .text.efi_net_station_address
                0x000000008205f0a0       0x1c lib/built-in.o
 .text.efi_net_receive_filters
                0x000000008205f0bc       0x1c lib/built-in.o
 .text.efi_net_stop
                0x000000008205f0d8       0x54 lib/built-in.o
 .text.efi_net_start
                0x000000008205f12c       0x58 lib/built-in.o
 .text.efi_net_get_status
                0x000000008205f184       0xa8 lib/built-in.o
 .text.efi_net_receive
                0x000000008205f22c      0x180 lib/built-in.o
 .text.efi_net_transmit
                0x000000008205f3ac       0xac lib/built-in.o
 .text.efi_net_shutdown
                0x000000008205f458       0x48 lib/built-in.o
 .text.efi_net_initialize
                0x000000008205f4a0       0x70 lib/built-in.o
 .text.efi_net_reset
                0x000000008205f510       0x44 lib/built-in.o
 .text.efi_net_set_dhcp_ack
                0x000000008205f554       0x54 lib/built-in.o
                0x000000008205f554                efi_net_set_dhcp_ack
 .text.efi_net_register
                0x000000008205f5a8      0x2a0 lib/built-in.o
                0x000000008205f5a8                efi_net_register
 .text.efi_smbios_register
                0x000000008205f848       0x74 lib/built-in.o
                0x000000008205f848                efi_smbios_register
 .text.LzmaDec_WriteRem
                0x000000008205f8bc       0x94 lib/built-in.o
 .text.LzmaDec_DecodeReal2
                0x000000008205f950      0xc88 lib/built-in.o
 .text.LzmaDec_TryDummy
                0x00000000820605d8      0x620 lib/built-in.o
 .text.LzmaDec_Init
                0x0000000082060bf8       0x1c lib/built-in.o
                0x0000000082060bf8                LzmaDec_Init
 .text.LzmaDec_DecodeToDic
                0x0000000082060c14      0x328 lib/built-in.o
                0x0000000082060c14                LzmaDec_DecodeToDic
 .text.LzmaDec_FreeProbs
                0x0000000082060f3c       0x30 lib/built-in.o
                0x0000000082060f3c                LzmaDec_FreeProbs
 .text.LzmaDec_AllocateProbs2.isra.1
                0x0000000082060f6c       0x7c lib/built-in.o
 .text.LzmaProps_Decode
                0x0000000082060fe8       0x90 lib/built-in.o
                0x0000000082060fe8                LzmaProps_Decode
 .text.LzmaDec_AllocateProbs
                0x0000000082061078       0x50 lib/built-in.o
                0x0000000082061078                LzmaDec_AllocateProbs
 .text.LzmaDecode
                0x00000000820610c8       0xf0 lib/built-in.o
                0x00000000820610c8                LzmaDecode
 .text.SzFree   0x00000000820611b8        0x8 lib/built-in.o
 .text.SzAlloc  0x00000000820611c0        0x8 lib/built-in.o
 .text.lzmaBuffToBuffDecompress
                0x00000000820611c8      0x110 lib/built-in.o
                0x00000000820611c8                lzmaBuffToBuffDecompress
 .text.fdt_check_header
                0x00000000820612d8       0x74 lib/built-in.o
                0x00000000820612d8                fdt_check_header
 .text.fdt_offset_ptr
                0x000000008206134c       0x74 lib/built-in.o
                0x000000008206134c                fdt_offset_ptr
 .text.fdt_next_tag
                0x00000000820613c0      0x104 lib/built-in.o
                0x00000000820613c0                fdt_next_tag
 .text.fdt_check_node_offset_
                0x00000000820614c4       0x40 lib/built-in.o
                0x00000000820614c4                fdt_check_node_offset_
 .text.fdt_check_prop_offset_
                0x0000000082061504       0x40 lib/built-in.o
                0x0000000082061504                fdt_check_prop_offset_
 .text.fdt_next_node
                0x0000000082061544       0xb0 lib/built-in.o
                0x0000000082061544                fdt_next_node
 .text.fdt_first_subnode
                0x00000000820615f4       0x34 lib/built-in.o
                0x00000000820615f4                fdt_first_subnode
 .text.fdt_next_subnode
                0x0000000082061628       0x5c lib/built-in.o
                0x0000000082061628                fdt_next_subnode
 .text.fdt_find_string_
                0x0000000082061684       0x70 lib/built-in.o
                0x0000000082061684                fdt_find_string_
 .text.fdt_move
                0x00000000820616f4       0x5c lib/built-in.o
                0x00000000820616f4                fdt_move
 .text.fdt_setprop_inplace_namelen_partial
                0x0000000082061750       0x6c lib/built-in.o
                0x0000000082061750                fdt_setprop_inplace_namelen_partial
 .text.fdt_setprop_inplace
                0x00000000820617bc       0x8c lib/built-in.o
                0x00000000820617bc                fdt_setprop_inplace
 .text.fdt_node_end_offset_
                0x0000000082061848       0x4c lib/built-in.o
                0x0000000082061848                fdt_node_end_offset_
 .text.fdt_strerror
                0x0000000082061894       0x4c lib/built-in.o
                0x0000000082061894                fdt_strerror
 .text.fdt_blocks_misordered_
                0x00000000820618e0       0x60 lib/built-in.o
 .text.fdt_splice_
                0x0000000082061940       0x98 lib/built-in.o
 .text.fdt_splice_mem_rsv_
                0x00000000820619d8       0x6c lib/built-in.o
 .text.fdt_splice_struct_
                0x0000000082061a44       0x60 lib/built-in.o
 .text.fdt_packblocks_
                0x0000000082061aa4       0xb0 lib/built-in.o
 .text.fdt_add_property_
                0x0000000082061b54      0x150 lib/built-in.o
 .text.fdt_rw_check_header_
                0x0000000082061ca4       0x6c lib/built-in.o
 .text.fdt_add_mem_rsv
                0x0000000082061d10       0x7c lib/built-in.o
                0x0000000082061d10                fdt_add_mem_rsv
 .text.fdt_del_mem_rsv
                0x0000000082061d8c       0x70 lib/built-in.o
                0x0000000082061d8c                fdt_del_mem_rsv
 .text.fdt_setprop_placeholder
                0x0000000082061dfc       0xd8 lib/built-in.o
                0x0000000082061dfc                fdt_setprop_placeholder
 .text.fdt_setprop
                0x0000000082061ed4       0x54 lib/built-in.o
                0x0000000082061ed4                fdt_setprop
 .text.fdt_appendprop
                0x0000000082061f28       0xf0 lib/built-in.o
                0x0000000082061f28                fdt_appendprop
 .text.fdt_delprop
                0x0000000082062018       0x74 lib/built-in.o
                0x0000000082062018                fdt_delprop
 .text.fdt_add_subnode_namelen
                0x000000008206208c      0x11c lib/built-in.o
                0x000000008206208c                fdt_add_subnode_namelen
 .text.fdt_add_subnode
                0x00000000820621a8       0x44 lib/built-in.o
                0x00000000820621a8                fdt_add_subnode
 .text.fdt_del_node
                0x00000000820621ec       0x60 lib/built-in.o
                0x00000000820621ec                fdt_del_node
 .text.fdt_open_into
                0x000000008206224c      0x1a0 lib/built-in.o
                0x000000008206224c                fdt_open_into
 .text.fdt_address_cells
                0x00000000820623ec       0x58 lib/built-in.o
                0x00000000820623ec                fdt_address_cells
 .text.fdt_size_cells
                0x0000000082062444       0x54 lib/built-in.o
                0x0000000082062444                fdt_size_cells
 .text.fdt_path_next_separator
                0x0000000082062498       0x68 lib/built-in.o
 .text._nextprop
                0x0000000082062500       0x64 lib/built-in.o
 .text.fdt_string
                0x0000000082062564       0x14 lib/built-in.o
                0x0000000082062564                fdt_string
 .text.fdt_get_mem_rsv
                0x0000000082062578       0x68 lib/built-in.o
                0x0000000082062578                fdt_get_mem_rsv
 .text.fdt_num_mem_rsv
                0x00000000820625e0       0x2c lib/built-in.o
                0x00000000820625e0                fdt_num_mem_rsv
 .text.fdt_subnode_offset_namelen
                0x000000008206260c       0xec lib/built-in.o
                0x000000008206260c                fdt_subnode_offset_namelen
 .text.fdt_subnode_offset
                0x00000000820626f8       0x44 lib/built-in.o
                0x00000000820626f8                fdt_subnode_offset
 .text.fdt_get_name
                0x000000008206273c       0x7c lib/built-in.o
                0x000000008206273c                fdt_get_name
 .text.fdt_first_property_offset
                0x00000000820627b8       0x38 lib/built-in.o
                0x00000000820627b8                fdt_first_property_offset
 .text.fdt_next_property_offset
                0x00000000820627f0       0x38 lib/built-in.o
                0x00000000820627f0                fdt_next_property_offset
 .text.fdt_get_property_by_offset
                0x0000000082062828       0x64 lib/built-in.o
                0x0000000082062828                fdt_get_property_by_offset
 .text.fdt_get_property_namelen
                0x000000008206288c       0xd4 lib/built-in.o
                0x000000008206288c                fdt_get_property_namelen
 .text.fdt_get_property
                0x0000000082062960       0x4c lib/built-in.o
                0x0000000082062960                fdt_get_property
 .text.fdt_getprop_namelen
                0x00000000820629ac       0x20 lib/built-in.o
                0x00000000820629ac                fdt_getprop_namelen
 .text.fdt_getprop_by_offset
                0x00000000820629cc       0x54 lib/built-in.o
                0x00000000820629cc                fdt_getprop_by_offset
 .text.fdt_getprop
                0x0000000082062a20       0x4c lib/built-in.o
                0x0000000082062a20                fdt_getprop
 .text.fdt_get_phandle
                0x0000000082062a6c       0x78 lib/built-in.o
                0x0000000082062a6c                fdt_get_phandle
 .text.fdt_get_alias_namelen
                0x0000000082062ae4       0x64 lib/built-in.o
                0x0000000082062ae4                fdt_get_alias_namelen
 .text.fdt_path_offset_namelen
                0x0000000082062b48       0xfc lib/built-in.o
                0x0000000082062b48                fdt_path_offset_namelen
 .text.fdt_path_offset
                0x0000000082062c44       0x34 lib/built-in.o
                0x0000000082062c44                fdt_path_offset
 .text.fdt_get_path
                0x0000000082062c78      0x16c lib/built-in.o
                0x0000000082062c78                fdt_get_path
 .text.fdt_supernode_atdepth_offset
                0x0000000082062de4       0xc0 lib/built-in.o
                0x0000000082062de4                fdt_supernode_atdepth_offset
 .text.fdt_node_depth
                0x0000000082062ea4       0x30 lib/built-in.o
                0x0000000082062ea4                fdt_node_depth
 .text.fdt_parent_offset
                0x0000000082062ed4       0x44 lib/built-in.o
                0x0000000082062ed4                fdt_parent_offset
 .text.fdt_node_offset_by_prop_value
                0x0000000082062f18       0xb4 lib/built-in.o
                0x0000000082062f18                fdt_node_offset_by_prop_value
 .text.fdt_stringlist_contains
                0x0000000082062fcc       0x98 lib/built-in.o
                0x0000000082062fcc                fdt_stringlist_contains
 .text.fdt_stringlist_count
                0x0000000082063064       0x7c lib/built-in.o
                0x0000000082063064                fdt_stringlist_count
 .text.fdt_stringlist_search
                0x00000000820630e0       0xc4 lib/built-in.o
                0x00000000820630e0                fdt_stringlist_search
 .text.fdt_stringlist_get
                0x00000000820631a4       0xb4 lib/built-in.o
                0x00000000820631a4                fdt_stringlist_get
 .text.fdt_node_check_compatible
                0x0000000082063258       0x4c lib/built-in.o
                0x0000000082063258                fdt_node_check_compatible
 .text.fdt_node_offset_by_compatible
                0x00000000820632a4       0x84 lib/built-in.o
                0x00000000820632a4                fdt_node_offset_by_compatible
 .text.get_code
                0x0000000082063328       0xec lib/built-in.o
 .text.read_string
                0x0000000082063414       0x2c lib/built-in.o
 .text.read_console
                0x0000000082063440       0x1c lib/built-in.o
 .text.console_read_unicode
                0x000000008206345c       0x44 lib/built-in.o
                0x000000008206345c                console_read_unicode
 .text.utf8_get
                0x00000000820634a0       0x10 lib/built-in.o
                0x00000000820634a0                utf8_get
 .text.utf8_put
                0x00000000820634b0       0xd8 lib/built-in.o
                0x00000000820634b0                utf8_put
 .text.utf8_utf16_strnlen
                0x0000000082063588       0x78 lib/built-in.o
                0x0000000082063588                utf8_utf16_strnlen
 .text.utf16_get
                0x0000000082063600       0x88 lib/built-in.o
                0x0000000082063600                utf16_get
 .text.utf16_put
                0x0000000082063688       0x80 lib/built-in.o
                0x0000000082063688                utf16_put
 .text.utf8_utf16_strncpy
                0x0000000082063708       0x88 lib/built-in.o
                0x0000000082063708                utf8_utf16_strncpy
 .text.utf16_strnlen
                0x0000000082063790       0x4c lib/built-in.o
                0x0000000082063790                utf16_strnlen
 .text.utf16_utf8_strnlen
                0x00000000820637dc       0x84 lib/built-in.o
                0x00000000820637dc                utf16_utf8_strnlen
 .text.utf16_utf8_strncpy
                0x0000000082063860       0x78 lib/built-in.o
                0x0000000082063860                utf16_utf8_strncpy
 .text.utf_to_lower
                0x00000000820638d8       0x44 lib/built-in.o
                0x00000000820638d8                utf_to_lower
 .text.utf_to_upper
                0x000000008206391c       0x44 lib/built-in.o
                0x000000008206391c                utf_to_upper
 .text.u16_strlen
                0x0000000082063960       0x1c lib/built-in.o
                0x0000000082063960                u16_strlen
 .text.utf16_to_utf8
                0x000000008206397c      0x12c lib/built-in.o
                0x000000008206397c                utf16_to_utf8
 .text.crc16_ccitt
                0x0000000082063aa8       0x38 lib/built-in.o
                0x0000000082063aa8                crc16_ccitt
 .text.crc16_ccitt_wd_buf
                0x0000000082063ae0       0x3c lib/built-in.o
                0x0000000082063ae0                crc16_ccitt_wd_buf
 .text.fdtdec_get_int
                0x0000000082063b1c       0x40 lib/built-in.o
                0x0000000082063b1c                fdtdec_get_int
 .text.smbios_write_type127
                0x0000000082063b5c       0x68 lib/built-in.o
 .text.smbios_write_type32
                0x0000000082063bc4       0x68 lib/built-in.o
 .text.smbios_string_table_len
                0x0000000082063c2c       0x44 lib/built-in.o
 .text.smbios_add_string
                0x0000000082063c70       0x7c lib/built-in.o
 .text.smbios_write_type3
                0x0000000082063cec       0xa0 lib/built-in.o
 .text.smbios_write_type2
                0x0000000082063d8c       0xb0 lib/built-in.o
 .text.smbios_write_type0
                0x0000000082063e3c      0x104 lib/built-in.o
 .text.smbios_write_type1
                0x0000000082063f40       0xd4 lib/built-in.o
 .text.smbios_write_type4
                0x0000000082064014       0xe8 lib/built-in.o
 .text.write_smbios_table
                0x00000000820640fc      0x160 lib/built-in.o
                0x00000000820640fc                write_smbios_table
 .text.MD5Transform
                0x000000008206425c      0xa00 lib/built-in.o
 .text.MD5Update
                0x0000000082064c5c      0x104 lib/built-in.o
 .text.MD5Final
                0x0000000082064d60       0xc4 lib/built-in.o
 .text.md5_wd   0x0000000082064e24       0x64 lib/built-in.o
                0x0000000082064e24                md5_wd
 .text.string_to_ip
                0x0000000082064e88       0xa0 lib/built-in.o
                0x0000000082064e88                string_to_ip
 .text.merge    0x0000000082064f28       0x8c lib/built-in.o
 .text.list_sort
                0x0000000082064fb4      0x1a4 lib/built-in.o
                0x0000000082064fb4                list_sort
 .text.sha1_process
                0x0000000082065158     0x1594 lib/built-in.o
 .text.sha1_update.part.0
                0x00000000820666ec      0x108 lib/built-in.o
 .text.sha1_starts
                0x00000000820667f4       0x44 lib/built-in.o
                0x00000000820667f4                sha1_starts
 .text.sha1_update
                0x0000000082066838        0xc lib/built-in.o
                0x0000000082066838                sha1_update
 .text.sha1_finish
                0x0000000082066844      0x17c lib/built-in.o
                0x0000000082066844                sha1_finish
 .text.sha1_csum_wd
                0x00000000820669c0       0x48 lib/built-in.o
                0x00000000820669c0                sha1_csum_wd
 .text.sha256_process
                0x0000000082066a08     0x1fa8 lib/built-in.o
 .text.sha256_update.part.0
                0x00000000820689b0      0x104 lib/built-in.o
 .text.sha256_starts
                0x0000000082068ab4       0x68 lib/built-in.o
                0x0000000082068ab4                sha256_starts
 .text.sha256_update
                0x0000000082068b1c        0xc lib/built-in.o
                0x0000000082068b1c                sha256_update
 .text.sha256_finish
                0x0000000082068b28      0x1bc lib/built-in.o
                0x0000000082068b28                sha256_finish
 .text.sha256_csum_wd
                0x0000000082068ce4       0x48 lib/built-in.o
                0x0000000082068ce4                sha256_csum_wd
 .text.zcalloc  0x0000000082068d2c        0x8 lib/built-in.o
                0x0000000082068d2c                zcalloc
 .text.zcfree   0x0000000082068d34        0x8 lib/built-in.o
                0x0000000082068d34                zcfree
 .text.inflate_fast
                0x0000000082068d3c      0x500 lib/built-in.o
                0x0000000082068d3c                inflate_fast
 .text.inflate_table
                0x000000008206923c      0x444 lib/built-in.o
                0x000000008206923c                inflate_table
 .text.inflateReset
                0x0000000082069680       0x60 lib/built-in.o
                0x0000000082069680                inflateReset
 .text.inflateInit2_
                0x00000000820696e0      0x104 lib/built-in.o
                0x00000000820696e0                inflateInit2_
 .text.inflateEnd
                0x00000000820697e4       0x64 lib/built-in.o
                0x00000000820697e4                inflateEnd
 .text.adler32  0x0000000082069848      0x2f8 lib/built-in.o
                0x0000000082069848                adler32
 .text.inflate  0x0000000082069b40     0x137c lib/built-in.o
                0x0000000082069b40                inflate
 .text.gzalloc  0x000000008206aebc       0x10 lib/built-in.o
                0x000000008206aebc                gzalloc
 .text.gzfree   0x000000008206aecc        0x8 lib/built-in.o
                0x000000008206aecc                gzfree
 .text.gzip_parse_header
                0x000000008206aed4       0xb4 lib/built-in.o
                0x000000008206aed4                gzip_parse_header
 .text.gzwrite_progress_init
                0x000000008206af88        0x8 lib/built-in.o
                0x000000008206af88                gzwrite_progress_init
 .text.gzwrite_progress
                0x000000008206af90       0x18 lib/built-in.o
                0x000000008206af90                gzwrite_progress
 .text.gzwrite_progress_finish
                0x000000008206afa8       0x28 lib/built-in.o
                0x000000008206afa8                gzwrite_progress_finish
 .text.gzwrite  0x000000008206afd0      0x3bc lib/built-in.o
                0x000000008206afd0                gzwrite
 .text.zunzip   0x000000008206b38c      0x11c lib/built-in.o
                0x000000008206b38c                zunzip
 .text.gunzip   0x000000008206b4a8       0x68 lib/built-in.o
                0x000000008206b4a8                gunzip
 .text.get_prop_check_min_len
                0x000000008206b510       0x48 lib/built-in.o
 .text.fdtdec_get_is_enabled
                0x000000008206b558       0x40 lib/built-in.o
                0x000000008206b558                fdtdec_get_is_enabled
 .text.fdtdec_get_alias_seq
                0x000000008206b598      0x128 lib/built-in.o
                0x000000008206b598                fdtdec_get_alias_seq
 .text.fdtdec_prepare_fdt
                0x000000008206b6c0       0x44 lib/built-in.o
                0x000000008206b6c0                fdtdec_prepare_fdt
 .text.fdtdec_get_int_array
                0x000000008206b704       0x60 lib/built-in.o
                0x000000008206b704                fdtdec_get_int_array
 .text.fdtdec_get_bool
                0x000000008206b764       0x20 lib/built-in.o
                0x000000008206b764                fdtdec_get_bool
 .text.fdtdec_get_config_int
                0x000000008206b784       0x60 lib/built-in.o
                0x000000008206b784                fdtdec_get_config_int
 .text.fdtdec_get_config_string
                0x000000008206b7e4       0x4c lib/built-in.o
                0x000000008206b7e4                fdtdec_get_config_string
 .text.fdtdec_get_number
                0x000000008206b830       0x30 lib/built-in.o
                0x000000008206b830                fdtdec_get_number
 .text.fdt_get_resource
                0x000000008206b860      0x114 lib/built-in.o
                0x000000008206b860                fdt_get_resource
 .text.fdt_get_named_resource
                0x000000008206b974       0x64 lib/built-in.o
                0x000000008206b974                fdt_get_named_resource
 .text.board_fdt_blob_setup
                0x000000008206b9d8        0xc lib/built-in.o
                0x000000008206b9d8                board_fdt_blob_setup
 .text.fdtdec_setup
                0x000000008206b9e4       0x3c lib/built-in.o
                0x000000008206b9e4                fdtdec_setup
 .text.qsort    0x000000008206ba20       0xf4 lib/built-in.o
                0x000000008206ba20                qsort
 .text.strcmp_compar
                0x000000008206bb14        0xc lib/built-in.o
                0x000000008206bb14                strcmp_compar
 .text.cmpkey   0x000000008206bb20       0x14 lib/built-in.o
 .text._hdelete.isra.0
                0x000000008206bb34       0x64 lib/built-in.o
 .text.drop_var_from_set.part.1
                0x000000008206bb98       0x6c lib/built-in.o
 .text.match_string
                0x000000008206bc04       0xa0 lib/built-in.o
 .text.match_entry
                0x000000008206bca4       0xd4 lib/built-in.o
 .text.hcreate_r
                0x000000008206bd78       0x90 lib/built-in.o
                0x000000008206bd78                hcreate_r
 .text.hdestroy_r
                0x000000008206be08       0x88 lib/built-in.o
                0x000000008206be08                hdestroy_r
 .text.hmatch_r
                0x000000008206be90       0xb8 lib/built-in.o
                0x000000008206be90                hmatch_r
 .text.hsearch_r
                0x000000008206bf48      0x434 lib/built-in.o
                0x000000008206bf48                hsearch_r
 .text.hdelete_r
                0x000000008206c37c       0xf4 lib/built-in.o
                0x000000008206c37c                hdelete_r
 .text.hexport_r
                0x000000008206c470      0x288 lib/built-in.o
                0x000000008206c470                hexport_r
 .text.himport_r
                0x000000008206c6f8      0x3c0 lib/built-in.o
                0x000000008206c6f8                himport_r
 .text.hwalk_r  0x000000008206cab8       0x70 lib/built-in.o
                0x000000008206cab8                hwalk_r
 .text.display_options_get_banner_priv
                0x000000008206cb28       0xb8 lib/built-in.o
                0x000000008206cb28                display_options_get_banner_priv
 .text.display_options_get_banner
                0x000000008206cbe0       0x10 lib/built-in.o
                0x000000008206cbe0                display_options_get_banner
 .text.display_options
                0x000000008206cbf0       0x34 lib/built-in.o
                0x000000008206cbf0                display_options
 .text.print_size
                0x000000008206cc24       0xf8 lib/built-in.o
                0x000000008206cc24                print_size
 .text.print_buffer
                0x000000008206cd1c      0x1e8 lib/built-in.o
                0x000000008206cd1c                print_buffer
 .text.crc32_wd
                0x000000008206cf04        0x4 lib/built-in.o
                0x000000008206cf04                crc32_wd
 .text.crc32_wd_buf
                0x000000008206cf08       0x3c lib/built-in.o
                0x000000008206cf08                crc32_wd_buf
 .text.hang     0x000000008206cf44       0x20 lib/built-in.o
                0x000000008206cf44                hang
 .text.kmalloc  0x000000008206cf64       0x50 lib/built-in.o
                0x000000008206cf64                kmalloc
 .text.skip_spaces
                0x000000008206cfb4       0x20 lib/built-in.o
                0x000000008206cfb4                skip_spaces
 .text.strim    0x000000008206cfd4       0x5c lib/built-in.o
                0x000000008206cfd4                strim
 .text.lmb_overlaps_region
                0x000000008206d030       0x50 lib/built-in.o
 .text.lmb_add_region
                0x000000008206d080      0x174 lib/built-in.o
 .text.lmb_dump_all
                0x000000008206d1f4        0x4 lib/built-in.o
                0x000000008206d1f4                lmb_dump_all
 .text.lmb_add  0x000000008206d1f8        0x4 lib/built-in.o
                0x000000008206d1f8                lmb_add
 .text.lmb_free
                0x000000008206d1fc       0xdc lib/built-in.o
                0x000000008206d1fc                lmb_free
 .text.lmb_reserve
                0x000000008206d2d8        0x8 lib/built-in.o
                0x000000008206d2d8                lmb_reserve
 .text.__lmb_alloc_base
                0x000000008206d2e0       0xd4 lib/built-in.o
                0x000000008206d2e0                __lmb_alloc_base
 .text.lmb_alloc_base
                0x000000008206d3b4       0x4c lib/built-in.o
                0x000000008206d3b4                lmb_alloc_base
 .text.lmb_alloc
                0x000000008206d400        0x8 lib/built-in.o
                0x000000008206d400                lmb_alloc
 .text.lmb_alloc_addr
                0x000000008206d408       0x64 lib/built-in.o
                0x000000008206d408                lmb_alloc_addr
 .text.lmb_get_free_size
                0x000000008206d46c       0x88 lib/built-in.o
                0x000000008206d46c                lmb_get_free_size
 .text.board_lmb_reserve
                0x000000008206d4f4        0x4 lib/built-in.o
                0x000000008206d4f4                board_lmb_reserve
 .text.lmb_init_and_reserve
                0x000000008206d4f8       0x78 lib/built-in.o
                0x000000008206d4f8                lmb_init_and_reserve
 .text.lmb_init_and_reserve_range
                0x000000008206d570       0x54 lib/built-in.o
                0x000000008206d570                lmb_init_and_reserve_range
 .text.emit     0x000000008206d5c4       0x2c lib/built-in.o
 .text.store_char_in_data
                0x000000008206d5f0       0x30 lib/built-in.o
 .text.get_escape_char
                0x000000008206d620       0x84 lib/built-in.o
 .text.relocate
                0x000000008206d6a4       0x58 lib/built-in.o
 .text.match    0x000000008206d6fc      0x3f8 lib/built-in.o
 .text.loop_greedy
                0x000000008206daf4       0xb4 lib/built-in.o
 .text.loop_non_greedy
                0x000000008206dba8       0xa0 lib/built-in.o
 .text.quantifier
                0x000000008206dc48       0xbc lib/built-in.o
 .text.fixup_branch
                0x000000008206dd04       0x54 lib/built-in.o
 .text.compile  0x000000008206dd58      0x378 lib/built-in.o
 .text.slre_compile
                0x000000008206e0d0       0xd4 lib/built-in.o
                0x000000008206e0d0                slre_compile
 .text.slre_match
                0x000000008206e1a4       0x9c lib/built-in.o
                0x000000008206e1a4                slre_match
 .text.strncasecmp
                0x000000008206e240       0x78 lib/built-in.o
                0x000000008206e240                strncasecmp
 .text.strcasecmp
                0x000000008206e2b8        0x8 lib/built-in.o
                0x000000008206e2b8                strcasecmp
 .text.strcpy   0x000000008206e2c0       0x18 lib/built-in.o
                0x000000008206e2c0                strcpy
 .text.strncpy  0x000000008206e2d8       0x20 lib/built-in.o
                0x000000008206e2d8                strncpy
 .text.strcat   0x000000008206e2f8       0x30 lib/built-in.o
                0x000000008206e2f8                strcat
 .text.strncat  0x000000008206e328       0x44 lib/built-in.o
                0x000000008206e328                strncat
 .text.strcmp   0x000000008206e36c       0x28 lib/built-in.o
                0x000000008206e36c                strcmp
 .text.strncmp  0x000000008206e394       0x38 lib/built-in.o
                0x000000008206e394                strncmp
 .text.strchr   0x000000008206e3cc       0x28 lib/built-in.o
                0x000000008206e3cc                strchr
 .text.strlen   0x000000008206e3f4       0x1c lib/built-in.o
                0x000000008206e3f4                strlen
 .text.strrchr  0x000000008206e410       0x40 lib/built-in.o
                0x000000008206e410                strrchr
 .text.strnlen  0x000000008206e450       0x28 lib/built-in.o
                0x000000008206e450                strnlen
 .text.strdup   0x000000008206e478       0x4c lib/built-in.o
                0x000000008206e478                strdup
 .text.strpbrk  0x000000008206e4c4       0x34 lib/built-in.o
                0x000000008206e4c4                strpbrk
 .text.strsep   0x000000008206e4f8       0x40 lib/built-in.o
                0x000000008206e4f8                strsep
 .text.memset   0x000000008206e538       0x70 lib/built-in.o
                0x000000008206e538                memset
 .text.memcpy   0x000000008206e5a8       0x70 lib/built-in.o
                0x000000008206e5a8                memcpy
 .text.memmove  0x000000008206e618       0x4c lib/built-in.o
                0x000000008206e618                memmove
 .text.memcmp   0x000000008206e664       0x30 lib/built-in.o
                0x000000008206e664                memcmp
 .text.strstr   0x000000008206e694       0x68 lib/built-in.o
                0x000000008206e694                strstr
 .text.memchr   0x000000008206e6fc       0x30 lib/built-in.o
                0x000000008206e6fc                memchr
 .text.get_timer
                0x000000008206e72c       0x3c lib/built-in.o
                0x000000008206e72c                get_timer
 .text.timer_get_us
                0x000000008206e768       0x38 lib/built-in.o
                0x000000008206e768                timer_get_us
 .text.__udelay
                0x000000008206e7a0       0x4c lib/built-in.o
                0x000000008206e7a0                __udelay
 .text.udelay   0x000000008206e7ec       0x44 lib/built-in.o
                0x000000008206e7ec                udelay
 .text.hex_dump_to_buffer
                0x000000008206e830      0x3fc lib/built-in.o
                0x000000008206e830                hex_dump_to_buffer
 .text.print_hex_dump
                0x000000008206ec2c      0x12c lib/built-in.o
                0x000000008206ec2c                print_hex_dump
 .text.uuid_str_valid
                0x000000008206ed58       0x7c lib/built-in.o
                0x000000008206ed58                uuid_str_valid
 .text.uuid_str_to_bin
                0x000000008206edd4      0x190 lib/built-in.o
                0x000000008206edd4                uuid_str_to_bin
 .text.uuid_bin_to_str
                0x000000008206ef64       0xd4 lib/built-in.o
                0x000000008206ef64                uuid_bin_to_str
 .text.gen_rand_uuid
                0x000000008206f038       0x84 lib/built-in.o
                0x000000008206f038                gen_rand_uuid
 .text.gen_rand_uuid_str
                0x000000008206f0bc       0x38 lib/built-in.o
                0x000000008206f0bc                gen_rand_uuid_str
 .text.rand_r   0x000000008206f0f4       0x1c lib/built-in.o
                0x000000008206f0f4                rand_r
 .text.rand     0x000000008206f110        0xc lib/built-in.o
                0x000000008206f110                rand
 .text.panic_finish
                0x000000008206f11c       0x34 lib/built-in.o
 .text.panic    0x000000008206f150       0x74 lib/built-in.o
                0x000000008206f150                panic
 .text.put_dec_trunc
                0x000000008206f1c4       0xe0 lib/built-in.o
 .text.put_dec  0x000000008206f2a4       0xd0 lib/built-in.o
 .text.number   0x000000008206f374      0x2cc lib/built-in.o
 .text.string16
                0x000000008206f640      0x124 lib/built-in.o
 .text.string   0x000000008206f764       0xdc lib/built-in.o
 .text.vsnprintf_internal
                0x000000008206f840      0xa44 lib/built-in.o
 .text.vscnprintf
                0x0000000082070284       0x74 lib/built-in.o
                0x0000000082070284                vscnprintf
 .text.snprintf
                0x00000000820702f8       0x7c lib/built-in.o
                0x00000000820702f8                snprintf
 .text.vsprintf
                0x0000000082070374       0x44 lib/built-in.o
                0x0000000082070374                vsprintf
 .text.sprintf  0x00000000820703b8       0x74 lib/built-in.o
                0x00000000820703b8                sprintf
 .text.printf   0x000000008207042c       0xb8 lib/built-in.o
                0x000000008207042c                printf
 .text.vprintf  0x00000000820704e4       0x58 lib/built-in.o
                0x00000000820704e4                vprintf
 .text.simple_itoa
                0x000000008207053c       0x40 lib/built-in.o
                0x000000008207053c                simple_itoa
 .text.str2off  0x000000008207057c       0x50 lib/built-in.o
                0x000000008207057c                str2off
 .text.str2long
                0x00000000820705cc       0x50 lib/built-in.o
                0x00000000820705cc                str2long
 .text._parse_integer_fixup_radix
                0x000000008207061c       0xac lib/built-in.o
 .text.simple_strtoul
                0x00000000820706c8       0x98 lib/built-in.o
                0x00000000820706c8                simple_strtoul
 .text.strict_strtoul
                0x0000000082070760       0x88 lib/built-in.o
                0x0000000082070760                strict_strtoul
 .text.simple_strtol
                0x00000000820707e8       0x2c lib/built-in.o
                0x00000000820707e8                simple_strtol
 .text.ustrtoul
                0x0000000082070814       0x90 lib/built-in.o
                0x0000000082070814                ustrtoul
 .text.simple_strtoull
                0x00000000820708a4       0x98 lib/built-in.o
                0x00000000820708a4                simple_strtoull
 .text.ustrtoull
                0x000000008207093c       0x90 lib/built-in.o
                0x000000008207093c                ustrtoull
 .text.trailing_strtoln
                0x00000000820709cc       0x78 lib/built-in.o
                0x00000000820709cc                trailing_strtoln
 .text.trailing_strtol
                0x0000000082070a44        0x8 lib/built-in.o
                0x0000000082070a44                trailing_strtol
 .text.strmhz   0x0000000082070a4c       0x68 lib/built-in.o
                0x0000000082070a4c                strmhz
 .text.compute_ip_checksum
                0x0000000082070ab4       0x8c net/built-in.o
                0x0000000082070ab4                compute_ip_checksum
 .text.ip_checksum_ok
                0x0000000082070b40       0x1c net/built-in.o
                0x0000000082070b40                ip_checksum_ok
 .text.arp_init
                0x0000000082070b5c       0x3c net/built-in.o
                0x0000000082070b5c                arp_init
 .text.arp_raw_request
                0x0000000082070b98       0xec net/built-in.o
                0x0000000082070b98                arp_raw_request
 .text.arp_request
                0x0000000082070c84       0x84 net/built-in.o
                0x0000000082070c84                arp_request
 .text.arp_timeout_check
                0x0000000082070d08       0x90 net/built-in.o
                0x0000000082070d08                arp_timeout_check
 .text.arp_receive
                0x0000000082070d98      0x240 net/built-in.o
                0x0000000082070d98                arp_receive
 .text.arp_is_waiting
                0x0000000082070fd8       0x14 net/built-in.o
                0x0000000082070fd8                arp_is_waiting
 .text.dhcp_extended
                0x0000000082070fec      0x268 net/built-in.o
 .text.dhcp_process_options
                0x0000000082071254      0x234 net/built-in.o
 .text.dhcp_packet_process_options
                0x0000000082071488       0x88 net/built-in.o
 .text.dhcp_handler
                0x0000000082071510      0x3d8 net/built-in.o
 .text.bootp_reset
                0x00000000820718e8       0x3c net/built-in.o
                0x00000000820718e8                bootp_reset
 .text.bootp_request
                0x0000000082071924      0x278 net/built-in.o
                0x0000000082071924                bootp_request
 .text.bootp_timeout_handler
                0x0000000082071b9c       0x68 net/built-in.o
 .text.dhcp_request
                0x0000000082071c04        0x4 net/built-in.o
                0x0000000082071c04                dhcp_request
 .text.__def_eth_init
                0x0000000082071c08        0x8 net/built-in.o
 .text.eth_set_current_to_next
                0x0000000082071c10       0x14 net/built-in.o
                0x0000000082071c10                eth_set_current_to_next
 .text.eth_set_dev
                0x0000000082071c24        0xc net/built-in.o
                0x0000000082071c24                eth_set_dev
 .text.eth_get_dev_by_name
                0x0000000082071c30       0x8c net/built-in.o
                0x0000000082071c30                eth_get_dev_by_name
 .text.eth_get_dev_by_index
                0x0000000082071cbc       0x34 net/built-in.o
                0x0000000082071cbc                eth_get_dev_by_index
 .text.eth_get_dev_index
                0x0000000082071cf0       0x1c net/built-in.o
                0x0000000082071cf0                eth_get_dev_index
 .text.eth_write_hwaddr
                0x0000000082071d0c      0x1e4 net/built-in.o
                0x0000000082071d0c                eth_write_hwaddr
 .text.on_ethaddr
                0x0000000082071ef0       0xc0 net/built-in.o
 .text.eth_register
                0x0000000082071fb0       0x80 net/built-in.o
                0x0000000082071fb0                eth_register
 .text.eth_initialize
                0x0000000082072030      0x190 net/built-in.o
                0x0000000082072030                eth_initialize
 .text.eth_init
                0x00000000820721c0       0x84 net/built-in.o
                0x00000000820721c0                eth_init
 .text.eth_halt
                0x0000000082072244       0x38 net/built-in.o
                0x0000000082072244                eth_halt
 .text.eth_send
                0x000000008207227c       0x28 net/built-in.o
                0x000000008207227c                eth_send
 .text.eth_rx   0x00000000820722a4       0x1c net/built-in.o
                0x00000000820722a4                eth_rx
 .text.eth_env_get_enetaddr_by_index
                0x00000000820722c0       0x50 net/built-in.o
                0x00000000820722c0                eth_env_get_enetaddr_by_index
 .text.eth_env_set_enetaddr_by_index
                0x0000000082072310       0x50 net/built-in.o
                0x0000000082072310                eth_env_set_enetaddr_by_index
 .text.eth_common_init
                0x0000000082072360       0x1c net/built-in.o
                0x0000000082072360                eth_common_init
 .text.eth_mac_skip
                0x000000008207237c       0x44 net/built-in.o
                0x000000008207237c                eth_mac_skip
 .text.eth_get_name
                0x00000000820723c0       0x1c net/built-in.o
                0x00000000820723c0                eth_get_name
 .text.eth_current_changed
                0x00000000820723dc       0x94 net/built-in.o
                0x00000000820723dc                eth_current_changed
 .text.eth_try_another
                0x0000000082072470       0x8c net/built-in.o
                0x0000000082072470                eth_try_another
 .text.eth_set_current
                0x00000000820724fc       0x8c net/built-in.o
                0x00000000820724fc                eth_set_current
 .text.net_clear_handlers
                0x0000000082072588       0x24 net/built-in.o
 .text.start_again_timeout_handler
                0x00000000820725ac       0x10 net/built-in.o
 .text.dummy_handler
                0x00000000820725bc        0x4 net/built-in.o
 .text.on_ipaddr
                0x00000000820725c0       0x34 net/built-in.o
 .text.on_gatewayip
                0x00000000820725f4       0x34 net/built-in.o
 .text.on_netmask
                0x0000000082072628       0x34 net/built-in.o
 .text.on_serverip
                0x000000008207265c       0x34 net/built-in.o
 .text.net_init_loop
                0x0000000082072690       0x24 net/built-in.o
 .text.net_init
                0x00000000820726b4       0x70 net/built-in.o
                0x00000000820726b4                net_init
 .text.net_start_again
                0x0000000082072724      0x150 net/built-in.o
                0x0000000082072724                net_start_again
 .text.net_set_udp_handler
                0x0000000082072874       0x1c net/built-in.o
                0x0000000082072874                net_set_udp_handler
 .text.net_get_arp_handler
                0x0000000082072890        0xc net/built-in.o
                0x0000000082072890                net_get_arp_handler
 .text.net_set_timeout_handler
                0x000000008207289c       0x54 net/built-in.o
                0x000000008207289c                net_set_timeout_handler
 .text.net_get_async_tx_pkt_buf
                0x00000000820728f0       0x2c net/built-in.o
                0x00000000820728f0                net_get_async_tx_pkt_buf
 .text.net_process_received_packet
                0x000000008207291c      0x2e8 net/built-in.o
                0x000000008207291c                net_process_received_packet
 .text.net_eth_hdr_size
                0x0000000082072c04       0x3c net/built-in.o
                0x0000000082072c04                net_eth_hdr_size
 .text.net_set_ether
                0x0000000082072c40       0xc0 net/built-in.o
                0x0000000082072c40                net_set_ether
 .text.net_update_ether
                0x0000000082072d00       0xa8 net/built-in.o
                0x0000000082072d00                net_update_ether
 .text.net_set_ip_header
                0x0000000082072da8       0xc0 net/built-in.o
                0x0000000082072da8                net_set_ip_header
 .text.net_set_udp_header
                0x0000000082072e68       0x90 net/built-in.o
                0x0000000082072e68                net_set_udp_header
 .text.net_send_ip_packet
                0x0000000082072ef8      0x12c net/built-in.o
                0x0000000082072ef8                net_send_ip_packet
 .text.net_send_udp_packet
                0x0000000082073024       0x2c net/built-in.o
                0x0000000082073024                net_send_udp_packet
 .text.copy_filename
                0x0000000082073050       0x4c net/built-in.o
                0x0000000082073050                copy_filename
 .text.is_serverip_in_cmd
                0x000000008207309c       0x28 net/built-in.o
                0x000000008207309c                is_serverip_in_cmd
 .text.net_check_prereq
                0x00000000820730c4       0xf8 net/built-in.o
 .text.net_auto_load
                0x00000000820731bc       0xa8 net/built-in.o
                0x00000000820731bc                net_auto_load
 .text.net_loop
                0x0000000082073264      0x268 net/built-in.o
                0x0000000082073264                net_loop
 .text.net_parse_bootfile
                0x00000000820734cc       0x98 net/built-in.o
                0x00000000820734cc                net_parse_bootfile
 .text.ip_to_string
                0x0000000082073564       0x28 net/built-in.o
                0x0000000082073564                ip_to_string
 .text.string_to_vlan
                0x000000008207358c       0x58 net/built-in.o
                0x000000008207358c                string_to_vlan
 .text.on_nvlan
                0x00000000820735e4       0x34 net/built-in.o
 .text.on_vlan  0x0000000082073618       0x34 net/built-in.o
 .text.rpc_lookup_reply
                0x000000008207364c       0xb8 net/built-in.o
 .text.nfs_mount_reply
                0x0000000082073704       0x98 net/built-in.o
 .text.nfs_umountall_reply
                0x000000008207379c       0x8c net/built-in.o
 .text.nfs_lookup_reply
                0x0000000082073828      0x10c net/built-in.o
 .text.nfs3_get_attributes_offset
                0x0000000082073934       0x14 net/built-in.o
 .text.nfs_readlink_reply
                0x0000000082073948      0x138 net/built-in.o
 .text.basename
                0x0000000082073a80       0x48 net/built-in.o
 .text.rpc_req  0x0000000082073ac8      0x124 net/built-in.o
 .text.nfs_read_req
                0x0000000082073bec       0xec net/built-in.o
 .text.nfs_read_reply.isra.0
                0x0000000082073cd8      0x164 net/built-in.o
 .text.nfs_readlink_req
                0x0000000082073e3c       0xc4 net/built-in.o
 .text.nfs_mount_req
                0x0000000082073f00       0xb4 net/built-in.o
 .text.nfs_lookup_req
                0x0000000082073fb4      0x148 net/built-in.o
 .text.nfs_umountall_req
                0x00000000820740fc       0x6c net/built-in.o
 .text.nfs_send
                0x0000000082074168      0x104 net/built-in.o
 .text.nfs_handler
                0x000000008207426c      0x23c net/built-in.o
 .text.nfs_timeout_handler
                0x00000000820744a8       0x70 net/built-in.o
 .text.nfs_start
                0x0000000082074518      0x1d0 net/built-in.o
                0x0000000082074518                nfs_start
 .text.ping_timeout_handler
                0x00000000820746e8       0x20 net/built-in.o
 .text.ping_start
                0x0000000082074708      0x118 net/built-in.o
                0x0000000082074708                ping_start
 .text.ping_receive
                0x0000000082074820      0x128 net/built-in.o
                0x0000000082074820                ping_receive
 .text.tftp_init_load_addr
                0x0000000082074948       0x5c net/built-in.o
 .text.tftp_send
                0x00000000820749a4      0x1ac net/built-in.o
 .text.tftp_handler
                0x0000000082074b50      0x3c0 net/built-in.o
 .text.tftp_timeout_handler
                0x0000000082074f10       0x84 net/built-in.o
 .text.tftp_start
                0x0000000082074f94      0x330 net/built-in.o
                0x0000000082074f94                tftp_start
                0x00000000820752c8                . = ALIGN (0x8)

.rodata         0x00000000820752c8    0x1945b
 *(SORT_BY_ALIGNMENT(SORT_BY_NAME(.rodata*)))
 .rodata.CSWTCH.150
                0x00000000820752c8       0xe8 common/built-in.o
 .rodata.CSWTCH.27
                0x00000000820753b0       0x40 common/built-in.o
 .rodata.CSWTCH.34
                0x00000000820753f0       0x40 disk/built-in.o
 .rodata.CSWTCH.40
                0x0000000082075430       0x28 cmd/built-in.o
 .rodata.CSWTCH.8
                0x0000000082075458       0x20 drivers/ddr/fsl/built-in.o
 .rodata.boot_os
                0x0000000082075478       0xc0 common/built-in.o
 .rodata.desc_and_len_tbl
                0x0000000082075538       0x60 cmd/built-in.o
 .rodata.desc_error_list
                0x0000000082075598      0x340 drivers/built-in.o
 .rodata.driver_ops
                0x00000000820758d8       0x18 lib/built-in.o
 .rodata.efi_blk_ops
                0x00000000820758f0       0x20 lib/built-in.o
 .rodata.efi_block_io_guid
                0x0000000082075910       0x10 lib/built-in.o
                0x0000000082075910                efi_block_io_guid
 .rodata.efi_device_path_to_text
                0x0000000082075920       0x10 lib/built-in.o
                0x0000000082075920                efi_device_path_to_text
 .rodata.efi_device_path_utilities
                0x0000000082075930       0x40 lib/built-in.o
                0x0000000082075930                efi_device_path_utilities
 .rodata.efi_file_handle_protocol
                0x0000000082075970       0x58 lib/built-in.o
 .rodata.efi_file_info_guid
                0x00000000820759c8       0x10 lib/built-in.o
                0x00000000820759c8                efi_file_info_guid
 .rodata.efi_file_system_info_guid
                0x00000000820759d8       0x10 lib/built-in.o
                0x00000000820759d8                efi_file_system_info_guid
 .rodata.efi_global_variable_guid
                0x00000000820759e8       0x10 lib/built-in.o
                0x00000000820759e8                efi_global_variable_guid
 .rodata.efi_guid_device_path
                0x00000000820759f8       0x10 lib/built-in.o
                0x00000000820759f8                efi_guid_device_path
 .rodata.efi_guid_device_path_to_text_protocol
                0x0000000082075a08       0x10 lib/built-in.o
                0x0000000082075a08                efi_guid_device_path_to_text_protocol
 .rodata.efi_guid_device_path_utilities_protocol
                0x0000000082075a18       0x10 lib/built-in.o
                0x0000000082075a18                efi_guid_device_path_utilities_protocol
 .rodata.efi_guid_driver_binding_protocol
                0x0000000082075a28       0x10 lib/built-in.o
                0x0000000082075a28                efi_guid_driver_binding_protocol
 .rodata.efi_guid_event_group_exit_boot_services
                0x0000000082075a38       0x10 lib/built-in.o
                0x0000000082075a38                efi_guid_event_group_exit_boot_services
 .rodata.efi_guid_event_group_reset_system
                0x0000000082075a48       0x10 lib/built-in.o
                0x0000000082075a48                efi_guid_event_group_reset_system
 .rodata.efi_guid_fdt
                0x0000000082075a58       0x10 lib/built-in.o
                0x0000000082075a58                efi_guid_fdt
 .rodata.efi_guid_loaded_image
                0x0000000082075a68       0x10 lib/built-in.o
                0x0000000082075a68                efi_guid_loaded_image
 .rodata.efi_guid_text_input_ex_protocol
                0x0000000082075a78       0x10 lib/built-in.o
                0x0000000082075a78                efi_guid_text_input_ex_protocol
 .rodata.efi_guid_text_input_protocol
                0x0000000082075a88       0x10 lib/built-in.o
                0x0000000082075a88                efi_guid_text_input_protocol
 .rodata.efi_guid_text_output_protocol
                0x0000000082075a98       0x10 lib/built-in.o
                0x0000000082075a98                efi_guid_text_output_protocol
 .rodata.efi_guid_unicode_collation_protocol
                0x0000000082075aa8       0x10 lib/built-in.o
                0x0000000082075aa8                efi_guid_unicode_collation_protocol
 .rodata.efi_net_guid
                0x0000000082075ab8       0x10 lib/built-in.o
 .rodata.efi_pxe_guid
                0x0000000082075ac8       0x10 lib/built-in.o
 .rodata.efi_simple_file_system_protocol_guid
                0x0000000082075ad8       0x10 lib/built-in.o
                0x0000000082075ad8                efi_simple_file_system_protocol_guid
 .rodata.efi_unicode_collation_protocol
                0x0000000082075ae8       0x38 lib/built-in.o
                0x0000000082075ae8                efi_unicode_collation_protocol
 .rodata.efi_var_attrs
                0x0000000082075b20       0x50 cmd/built-in.o
 .rodata.fdt_errtable
                0x0000000082075b70       0x90 lib/built-in.o
 .rodata.fdt_member_table
                0x0000000082075c00       0x50 cmd/built-in.o
 .rodata.fsl_esdhc_ids
                0x0000000082075c50       0x90 drivers/built-in.o
 .rodata.fsl_esdhc_ops
                0x0000000082075ce0       0x28 drivers/built-in.o
 .rodata.fsl_qspi_ids
                0x0000000082075d08       0x50 drivers/spi/built-in.o
 .rodata.fsl_qspi_ops
                0x0000000082075d58       0x40 drivers/spi/built-in.o
 .rodata.generic_simple_bus_ids
                0x0000000082075d98       0x30 drivers/built-in.o
 .rodata.hub_id_table
                0x0000000082075dc8       0x40 common/built-in.o
 .rodata.if_typename_str
                0x0000000082075e08       0x68 drivers/built-in.o
 .rodata.init_sequence_f
                0x0000000082075e70      0x180 common/built-in.o
 .rodata.keywords
                0x0000000082075ff0      0x130 cmd/built-in.o
 .rodata.ls_pcie_ids
                0x0000000082076120       0x20 drivers/built-in.o
 .rodata.ls_pcie_ops
                0x0000000082076140       0x10 drivers/built-in.o
 .rodata.mass_storage_id_table
                0x0000000082076150       0x40 common/built-in.o
 .rodata.mmc_blk_ops
                0x0000000082076190       0x20 drivers/built-in.o
 .rodata.names.10185
                0x00000000820761b0       0x68 drivers/built-in.o
 .rodata.onfi_sdr_timings
                0x0000000082076218      0x450 drivers/mtd/nand/raw/built-in.o
 .rodata.op_adv
                0x0000000082076668      0x180 cmd/built-in.o
                0x0000000082076668                op_adv
 .rodata.op_table
                0x00000000820767e8       0xd0 cmd/built-in.o
 .rodata.partition_basic_data_guid
                0x00000000820768b8       0x10 disk/built-in.o
 .rodata.pci_bridge_ids
                0x00000000820768c8       0x20 drivers/built-in.o
 .rodata.pci_bridge_ops
                0x00000000820768e8       0x10 drivers/built-in.o
 .rodata.pci_flag_info
                0x00000000820768f8       0x50 cmd/built-in.o
 .rodata.pci_generic_ids
                0x0000000082076948       0x20 drivers/built-in.o
 .rodata.phy_interface_strings
                0x0000000082076968       0xb0 arch/arm/cpu/armv8/built-in.o
 .rodata.reg_0_5_desc_tbl
                0x0000000082076a18       0x60 cmd/built-in.o
 .rodata.reg_0_desc_tbl
                0x0000000082076a78       0xa0 cmd/built-in.o
 .rodata.reg_1_desc_tbl
                0x0000000082076b18      0x100 cmd/built-in.o
 .rodata.reg_2_desc_tbl
                0x0000000082076c18       0x10 cmd/built-in.o
 .rodata.reg_3_desc_tbl
                0x0000000082076c28       0x30 cmd/built-in.o
 .rodata.reg_4_desc_tbl
                0x0000000082076c58       0xc0 cmd/built-in.o
 .rodata.reg_5_desc_tbl
                0x0000000082076d18       0xc0 cmd/built-in.o
 .rodata.root_info
                0x0000000082076dd8       0x10 drivers/built-in.o
 .rodata.sata_ceva_ids
                0x0000000082076de8       0x90 drivers/built-in.o
 .rodata.scsi_blk_ops
                0x0000000082076e78       0x20 drivers/built-in.o
 .rodata.serdes_cfg_tbl
                0x0000000082076e98       0x10 arch/arm/cpu/armv8/built-in.o
 .rodata.serial_ports
                0x0000000082076ea8       0x30 drivers/serial/built-in.o
 .rodata.smbios_guid
                0x0000000082076ed8       0x10 lib/built-in.o
 .rodata.smbios_write_funcs
                0x0000000082076ee8       0x38 lib/built-in.o
 .rodata.spi_flash_std_ids
                0x0000000082076f20       0x30 drivers/mtd/spi/built-in.o
 .rodata.spi_flash_std_ops
                0x0000000082076f50       0x20 drivers/mtd/spi/built-in.o
 .rodata.spi_nor_ids
                0x0000000082076f70      0x3e0 drivers/mtd/spi/built-in.o
                0x0000000082076f70                spi_nor_ids
 .rodata.status_src.8584
                0x0000000082077350       0x80 drivers/built-in.o
 .rodata.system_guid
                0x00000000820773d0       0x10 disk/built-in.o
 .rodata.uimage_arch
                0x00000000820773e0      0x288 common/built-in.o
 .rodata.uimage_comp
                0x0000000082077668       0xa8 common/built-in.o
 .rodata.uimage_os
                0x0000000082077710      0x120 common/built-in.o
 .rodata.uimage_type
                0x0000000082077830      0x3a8 common/built-in.o
 .rodata.usb_dr_modes
                0x0000000082077bd8       0x20 drivers/usb/common/built-in.o
 .rodata.usb_hub_ids
                0x0000000082077bf8       0x20 common/built-in.o
 .rodata.usb_mass_storage_ids
                0x0000000082077c18       0x20 common/built-in.o
 .rodata.usb_storage_ops
                0x0000000082077c38       0x20 common/built-in.o
 .rodata.xhci_dwc3_ids
                0x0000000082077c58       0x20 drivers/usb/host/built-in.o
 .rodata.xhci_usb_ids
                0x0000000082077c78       0x20 drivers/usb/host/built-in.o
 .rodata.binary_test
                0x0000000082077c98        0xe cmd/built-in.o
 *fill*         0x0000000082077ca6        0x2 
 .rodata.blk_common_cmd
                0x0000000082077ca8        0x4 cmd/built-in.o
 .rodata.cli_readline_into_buffer
                0x0000000082077cac       0x40 common/built-in.o
 .rodata.color  0x0000000082077cec       0x40 lib/built-in.o
 .rodata.dev_print
                0x0000000082077d2c       0x18 disk/built-in.o
 .rodata.do_fdt
                0x0000000082077d44       0x12 cmd/built-in.o
 *fill*         0x0000000082077d56        0x2 
 .rodata.do_itest
                0x0000000082077d58        0x7 cmd/built-in.o
 *fill*         0x0000000082077d5f        0x1 
 .rodata.do_nandboot
                0x0000000082077d60        0x4 cmd/built-in.o
 .rodata.do_test
                0x0000000082077d64        0xd cmd/built-in.o
 *fill*         0x0000000082077d71        0x3 
 .rodata.e1000_force_mac_fc
                0x0000000082077d74        0x4 drivers/net/built-in.o
 .rodata.e1000_init
                0x0000000082077d78       0x40 drivers/net/built-in.o
 .rodata.e1000_init_eeprom_params
                0x0000000082077db8       0x28 drivers/net/built-in.o
 .rodata.e1000_phy_hw_reset.part.17
                0x0000000082077de0        0x7 drivers/net/built-in.o
 *fill*         0x0000000082077de7        0x1 
 .rodata.efi_cin_check
                0x0000000082077de8       0x30 lib/built-in.o
 .rodata.efi_load_pe
                0x0000000082077e18        0xb lib/built-in.o
 *fill*         0x0000000082077e23        0x1 
 .rodata.efi_set_code_and_data_type
                0x0000000082077e24        0x4 lib/built-in.o
 .rodata.env_flags_validate
                0x0000000082077e28        0x6 env/built-in.o
 *fill*         0x0000000082077e2e        0x2 
 .rodata.env_flags_varaccess_mask
                0x0000000082077e30       0x10 env/built-in.o
 .rodata.ext_csd_bus_width
                0x0000000082077e40       0x3c drivers/built-in.o
 .rodata.fbase  0x0000000082077e7c       0x10 drivers/built-in.o
 .rodata.fdt_next_tag
                0x0000000082077e8c        0x9 lib/built-in.o
 *fill*         0x0000000082077e95        0x3 
 .rodata.fdt_set_node_status
                0x0000000082077e98        0x4 common/built-in.o
 .rodata.file_fat_detectfs
                0x0000000082077e9c        0x8 fs/built-in.o
 .rodata.freqs.10190
                0x0000000082077ea4       0x34 drivers/built-in.o
 .rodata.get_sys_info
                0x0000000082077ed8        0x6 arch/arm/cpu/armv8/built-in.o
 *fill*         0x0000000082077ede        0x2 
 .rodata.hwcaps_pp2cmd.10975
                0x0000000082077ee0       0x38 drivers/mtd/spi/built-in.o
 .rodata.hwcaps_read2cmd.10971
                0x0000000082077f18       0x78 drivers/mtd/spi/built-in.o
 .rodata.if_type_uclass_id
                0x0000000082077f90       0x34 drivers/built-in.o
 .rodata.inflate
                0x0000000082077fc4       0x3a lib/built-in.o
 *fill*         0x0000000082077ffe        0x2 
 .rodata.load_serial
                0x0000000082078000        0x9 cmd/built-in.o
 *fill*         0x0000000082078009        0x3 
 .rodata.match  0x000000008207800c       0x22 lib/built-in.o
 *fill*         0x000000008207802e        0x2 
 .rodata.memac_set_interface_mode
                0x0000000082078030        0xc drivers/net/fm/built-in.o
 .rodata.mmc_init
                0x000000008207803c        0x8 drivers/built-in.o
 .rodata.mmc_modes_by_pref
                0x0000000082078044       0x20 drivers/built-in.o
 .rodata.mmc_set_capacity
                0x0000000082078064        0x8 drivers/built-in.o
 .rodata.mmc_set_card_speed.constprop.11
                0x000000008207806c        0x6 drivers/built-in.o
 *fill*         0x0000000082078072        0x2 
 .rodata.mmc_versions.10550
                0x0000000082078074       0x24 drivers/built-in.o
 .rodata.mxc_get_clock
                0x0000000082078098        0x4 arch/arm/cpu/armv8/built-in.o
 .rodata.nand_get_flash_type
                0x000000008207809c        0xe drivers/mtd/nand/raw/built-in.o
 *fill*         0x00000000820780aa        0x2 
 .rodata.nand_scan_tail
                0x00000000820780ac        0xc drivers/mtd/nand/raw/built-in.o
 .rodata.net_check_prereq
                0x00000000820780b8        0xf net/built-in.o
 *fill*         0x00000000820780c7        0x1 
 .rodata.net_loop
                0x00000000820780c8        0x8 net/built-in.o
 .rodata.nfs_handler
                0x00000000820780d0        0x7 net/built-in.o
 *fill*         0x00000000820780d7        0x1 
 .rodata.nfs_send
                0x00000000820780d8        0x7 net/built-in.o
 *fill*         0x00000000820780df        0x1 
 .rodata.odt_unknown
                0x00000000820780e0       0x40 drivers/ddr/fsl/built-in.o
 .rodata.parse_pxefile_top
                0x0000000082078120       0x37 cmd/built-in.o
 *fill*         0x0000000082078157        0x1 
 .rodata.part_get_info_iso_verb
                0x0000000082078158        0x5 disk/built-in.o
 *fill*         0x000000008207815d        0x3 
 .rodata.part_print
                0x0000000082078160        0xc disk/built-in.o
 .rodata.prepare_ring
                0x000000008207816c        0x5 drivers/usb/host/built-in.o
 *fill*         0x0000000082078171        0x3 
 .rodata.print_ddr_info
                0x0000000082078174        0x6 drivers/ddr/fsl/built-in.o
 *fill*         0x000000008207817a        0x2 
 .rodata.record_transfer_result
                0x000000008207817c        0xd drivers/usb/host/built-in.o
 *fill*         0x0000000082078189        0x3 
 .rodata.sata_ceva_probe
                0x000000008207818c        0x8 drivers/built-in.o
 .rodata.sd_au_size.10431
                0x0000000082078194       0x40 drivers/built-in.o
 .rodata.sd_modes_by_pref
                0x00000000820781d4       0x10 drivers/built-in.o
 .rodata.single_D
                0x00000000820781e4       0x40 drivers/ddr/fsl/built-in.o
 .rodata.single_Q
                0x0000000082078224       0x40 drivers/ddr/fsl/built-in.o
 .rodata.single_S
                0x0000000082078264       0x40 drivers/ddr/fsl/built-in.o
 .rodata.srec_decode
                0x00000000820782a4        0xa common/built-in.o
 *fill*         0x00000000820782ae        0x2 
 .rodata.tftp_send
                0x00000000820782b0        0x7 net/built-in.o
 *fill*         0x00000000820782b7        0x1 
 .rodata.usb_display_class_sub
                0x00000000820782b8        0x6 cmd/built-in.o
 *fill*         0x00000000820782be        0x2 
 .rodata.write_bbt
                0x00000000820782c0       0x10 drivers/mtd/nand/raw/built-in.o
 .rodata.xhci_setup_addressable_virt_dev
                0x00000000820782d0        0xd drivers/usb/host/built-in.o
 *fill*         0x00000000820782dd        0x3 
 .rodata.xhci_submit_control_msg
                0x00000000820782e0       0x1a drivers/usb/host/built-in.o
 .rodata.caam_eras.8673
                0x00000000820782fa       0x34 drivers/built-in.o
 .rodata.codepage
                0x000000008207832e      0x100 lib/built-in.o
 .rodata.crc16_tab
                0x000000008207842e      0x200 lib/built-in.o
 .rodata.dbase.8806
                0x000000008207862e       0x40 lib/built-in.o
 .rodata.dext.8807
                0x000000008207866e       0x40 lib/built-in.o
 .rodata.distfix
                0x00000000820786ae       0x80 lib/built-in.o
 .rodata.efi_bootmgr_load.str2.2
                0x000000008207872e       0x48 lib/built-in.o
 .rodata.i2c_clk_div
                0x0000000082078776       0xf0 drivers/i2c/built-in.o
 .rodata.lbase.8804
                0x0000000082078866       0x3e lib/built-in.o
 .rodata.lenfix
                0x00000000820788a4      0x800 lib/built-in.o
 .rodata.lext.8805
                0x00000000820790a4       0x3e lib/built-in.o
 .rodata.order.8900
                0x00000000820790e2       0x26 lib/built-in.o
 .rodata.string16.str2.2
                0x0000000082079108        0xe lib/built-in.o
 .rodata        0x0000000082079116        0x7 board/freescale/common/built-in.o
 .rodata        0x000000008207911d       0x3a drivers/usb/host/built-in.o
 .rodata        0x0000000082079157       0x20 lib/built-in.o
 .rodata        0x0000000082079177        0x7 net/built-in.o
 .rodata.CSWTCH.46
                0x000000008207917e       0x16 common/built-in.o
 .rodata.CSWTCH.99
                0x0000000082079194        0x8 arch/arm/cpu/armv8/built-in.o
 .rodata.END    0x000000008207919c        0x4 lib/built-in.o
 .rodata.ROOT   0x00000000820791a0       0x14 lib/built-in.o
 .rodata.__FUNCTION__.9080
                0x00000000820791b4       0x17 common/built-in.o
 .rodata.__FUNCTION__.9264
                0x00000000820791cb       0x17 common/built-in.o
 .rodata.__FUNCTION__.9358
                0x00000000820791e2       0x10 drivers/ddr/fsl/built-in.o
 .rodata.__func__.10129
                0x00000000820791f2       0x1b lib/built-in.o
 .rodata.__func__.10148
                0x000000008207920d        0xc lib/built-in.o
 .rodata.__func__.10152
                0x0000000082079219       0x18 arch/arm/cpu/armv8/built-in.o
 .rodata.__func__.10173
                0x0000000082079231       0x10 arch/arm/cpu/armv8/built-in.o
 .rodata.__func__.10180
                0x0000000082079241       0x13 drivers/usb/host/built-in.o
 .rodata.__func__.10215
                0x0000000082079254       0x14 drivers/usb/host/built-in.o
 .rodata.__func__.10226
                0x0000000082079268        0x9 drivers/usb/host/built-in.o
 .rodata.__func__.10236
                0x0000000082079271       0x17 drivers/usb/host/built-in.o
 .rodata.__func__.10253
                0x0000000082079288       0x16 drivers/built-in.o
 .rodata.__func__.10280
                0x000000008207929e        0xd drivers/usb/host/built-in.o
 .rodata.__func__.10304
                0x00000000820792ab        0xd drivers/usb/host/built-in.o
 .rodata.__func__.10319
                0x00000000820792b8       0x14 net/built-in.o
 .rodata.__func__.10327
                0x00000000820792cc        0xd drivers/built-in.o
 .rodata.__func__.10333
                0x00000000820792d9       0x11 drivers/built-in.o
 .rodata.__func__.10337
                0x00000000820792ea       0x18 drivers/built-in.o
 .rodata.__func__.10341
                0x0000000082079302       0x18 drivers/built-in.o
 .rodata.__func__.10345
                0x000000008207931a        0xd drivers/built-in.o
 .rodata.__func__.10349
                0x0000000082079327       0x14 drivers/built-in.o
 .rodata.__func__.10353
                0x000000008207933b       0x14 drivers/built-in.o
 .rodata.__func__.10419
                0x000000008207934f       0x12 drivers/i2c/built-in.o
 .rodata.__func__.10453
                0x0000000082079361        0xd drivers/i2c/built-in.o
 .rodata.__func__.10498
                0x000000008207936e       0x12 drivers/i2c/built-in.o
 .rodata.__func__.10693
                0x0000000082079380       0x17 board/freescale/ls1046afrwy/built-in.o
 .rodata.__func__.10721
                0x0000000082079397       0x10 drivers/built-in.o
 .rodata.__func__.10727
                0x00000000820793a7        0xb drivers/mtd/nand/raw/built-in.o
 .rodata.__func__.10772
                0x00000000820793b2       0x15 common/built-in.o
 .rodata.__func__.10774
                0x00000000820793c7       0x13 drivers/built-in.o
 .rodata.__func__.10800
                0x00000000820793da       0x11 drivers/mtd/nand/raw/built-in.o
 .rodata.__func__.10870
                0x00000000820793eb       0x11 drivers/mtd/nand/raw/built-in.o
 .rodata.__func__.10874
                0x00000000820793fc        0xb cmd/built-in.o
 .rodata.__func__.10877
                0x0000000082079407       0x11 drivers/usb/host/built-in.o
 .rodata.__func__.10882
                0x0000000082079418       0x11 drivers/usb/host/built-in.o
 .rodata.__func__.10891
                0x0000000082079429        0xf drivers/usb/host/built-in.o
 .rodata.__func__.10926
                0x0000000082079438        0xc drivers/usb/host/built-in.o
 .rodata.__func__.10941
                0x0000000082079444       0x13 drivers/usb/host/built-in.o
 .rodata.__func__.10948
                0x0000000082079457       0x10 drivers/usb/host/built-in.o
 .rodata.__func__.10956
                0x0000000082079467       0x1b drivers/usb/host/built-in.o
 .rodata.__func__.10968
                0x0000000082079482       0x16 drivers/usb/host/built-in.o
 .rodata.__func__.10979
                0x0000000082079498       0x19 drivers/usb/host/built-in.o
 .rodata.__func__.10982
                0x00000000820794b1       0x19 drivers/usb/host/built-in.o
 .rodata.__func__.11011
                0x00000000820794ca       0x1b drivers/usb/host/built-in.o
 .rodata.__func__.11020
                0x00000000820794e5        0xa drivers/mtd/nand/raw/built-in.o
 .rodata.__func__.11031
                0x00000000820794ef       0x14 drivers/usb/host/built-in.o
 .rodata.__func__.11045
                0x0000000082079503       0x13 drivers/usb/host/built-in.o
 .rodata.__func__.11055
                0x0000000082079516       0x20 drivers/usb/host/built-in.o
 .rodata.__func__.11095
                0x0000000082079536       0x14 drivers/mtd/nand/raw/built-in.o
 .rodata.__func__.11136
                0x000000008207954a       0x10 drivers/mtd/nand/raw/built-in.o
 .rodata.__func__.11146
                0x000000008207955a       0x12 drivers/mtd/nand/raw/built-in.o
 .rodata.__func__.11154
                0x000000008207956c       0x12 drivers/mtd/nand/raw/built-in.o
 .rodata.__func__.11162
                0x000000008207957e       0x14 drivers/mtd/nand/raw/built-in.o
 .rodata.__func__.11175
                0x0000000082079592       0x11 drivers/mtd/nand/raw/built-in.o
 .rodata.__func__.11235
                0x00000000820795a3       0x1e drivers/net/fm/built-in.o
 .rodata.__func__.11239
                0x00000000820795c1       0x17 drivers/usb/host/built-in.o
 .rodata.__func__.11251
                0x00000000820795d8       0x1e drivers/net/fm/built-in.o
 .rodata.__func__.11252
                0x00000000820795f6        0xc lib/built-in.o
 .rodata.__func__.11261
                0x0000000082079602       0x12 drivers/mtd/nand/raw/built-in.o
 .rodata.__func__.11277
                0x0000000082079614       0x12 drivers/mtd/nand/raw/built-in.o
 .rodata.__func__.11279
                0x0000000082079626        0xc drivers/net/fm/built-in.o
 .rodata.__func__.11440
                0x0000000082079632       0x15 lib/built-in.o
 .rodata.__func__.11566
                0x0000000082079647        0xe drivers/mtd/nand/raw/built-in.o
 .rodata.__func__.11893
                0x0000000082079655       0x14 drivers/mtd/nand/raw/built-in.o
 .rodata.__func__.12038
                0x0000000082079669        0xf drivers/mtd/nand/raw/built-in.o
 .rodata.__func__.12855
                0x0000000082079678        0xf drivers/net/fm/built-in.o
 .rodata.__func__.12927
                0x0000000082079687        0xc drivers/net/fm/built-in.o
 .rodata.__func__.8478
                0x0000000082079693        0xb fs/built-in.o
 .rodata.__func__.8705
                0x000000008207969e        0x8 lib/built-in.o
 .rodata.__func__.8730
                0x00000000820796a6       0x12 arch/arm/cpu/armv8/built-in.o
 .rodata.__func__.8881
                0x00000000820796b8        0x7 cmd/built-in.o
 .rodata.__func__.8917
                0x00000000820796bf        0xe disk/built-in.o
 .rodata.__func__.8927
                0x00000000820796cd        0xf disk/built-in.o
 .rodata.__func__.8939
                0x00000000820796dc       0x12 disk/built-in.o
 .rodata.__func__.8950
                0x00000000820796ee       0x13 disk/built-in.o
 .rodata.__func__.8954
                0x0000000082079701       0x18 common/built-in.o
 .rodata.__func__.9012
                0x0000000082079719        0xc disk/built-in.o
 .rodata.__func__.9030
                0x0000000082079725       0x13 disk/built-in.o
 .rodata.__func__.9080
                0x0000000082079738        0xd disk/built-in.o
 .rodata.__func__.9092
                0x0000000082079745       0x17 disk/built-in.o
 .rodata.__func__.9097
                0x000000008207975c        0xd disk/built-in.o
 .rodata.__func__.9143
                0x0000000082079769       0x1c drivers/ddr/fsl/built-in.o
 .rodata.__func__.9278
                0x0000000082079785        0xf drivers/power/built-in.o
 .rodata.__func__.9292
                0x0000000082079794        0xe drivers/power/built-in.o
 .rodata.__func__.9293
                0x00000000820797a2       0x14 drivers/ddr/fsl/built-in.o
 .rodata.__func__.9344
                0x00000000820797b6        0xb drivers/power/built-in.o
 .rodata.__func__.9352
                0x00000000820797c1       0x15 drivers/power/pmic/built-in.o
 .rodata.__func__.9357
                0x00000000820797d6       0x16 board/freescale/common/built-in.o
 .rodata.__func__.9366
                0x00000000820797ec       0x16 board/freescale/common/built-in.o
 .rodata.__func__.9631
                0x0000000082079802        0xe drivers/built-in.o
 .rodata.__func__.9805
                0x0000000082079810        0xe common/built-in.o
 .rodata.__get_spd.str1.1
                0x000000008207981e       0x29 drivers/ddr/fsl/built-in.o
 .rodata.__hwconfig.str1.1
                0x0000000082079847       0x4e common/built-in.o
                                         0x59 (size before relaxing)
 .rodata.__step_assign_addresses.str1.1
                0x0000000082079895       0x4d drivers/ddr/fsl/built-in.o
 .rodata._ctype
                0x00000000820798e2      0x100 lib/built-in.o
                0x00000000820798e2                _ctype
 .rodata._do_env_set.str1.1
                0x00000000820799e2       0x7c cmd/built-in.o
 .rodata._do_help.str1.1
                0x0000000082079a5e       0x5f common/built-in.o
 .rodata.ahci_bind_scsi.str1.1
                0x0000000082079abd        0xa drivers/built-in.o
 .rodata.ahci_device_data_io.constprop.2.str1.1
                0x0000000082079ac7       0x27 drivers/built-in.o
 .rodata.ahci_host_init.str1.1
                0x0000000082079aee       0x32 drivers/built-in.o
 .rodata.ahci_print_info.str1.1
                0x0000000082079b20       0xe0 drivers/built-in.o
                                         0xf1 (size before relaxing)
 .rodata.ahci_reset.str1.1
                0x0000000082079c00       0x20 drivers/built-in.o
 .rodata.ahci_scsi_exec.str1.1
                0x0000000082079c20       0xef drivers/built-in.o
 .rodata.ahci_start_ports.str1.1
                0x0000000082079d0f       0x45 drivers/built-in.o
 .rodata.announce_dram_init.str1.1
                0x0000000082079d54        0x8 common/built-in.o
 .rodata.arch_early_init_r.str1.1
                0x0000000082079d5c       0x1e arch/arm/cpu/armv8/built-in.o
 .rodata.arp_receive.str1.1
                0x0000000082079d7a       0x14 net/built-in.o
 .rodata.arp_request.str1.1
                0x0000000082079d8e       0x2a net/built-in.o
 .rodata.arp_timeout_check.str1.1
                0x0000000082079db8       0x2b net/built-in.o
 .rodata.ata_scsiop_inquiry.str1.1
                0x0000000082079de3       0x28 drivers/built-in.o
 .rodata.ata_scsiop_read_write.str1.1
                0x0000000082079e0b       0x25 drivers/built-in.o
 .rodata.autoboot_command.str1.1
                0x0000000082079e30       0x31 common/built-in.o
 .rodata.b_addqchr.str1.1
                0x0000000082079e61        0x5 common/built-in.o
 .rodata.binary_test.str1.1
                0x0000000082079e66       0x17 cmd/built-in.o
 .rodata.blk_common_cmd.str1.1
                0x0000000082079e7d       0xed cmd/built-in.o
                                        0x101 (size before relaxing)
 .rodata.blk_create_devicef.str1.1
                0x0000000082079f6a        0x6 drivers/built-in.o
 .rodata.blk_get_device_by_str.str1.1
                0x0000000082079f70       0x52 disk/built-in.o
 .rodata.blk_get_device_part_str.str1.1
                0x0000000082079fc2       0xfc disk/built-in.o
                                        0x109 (size before relaxing)
 .rodata.blk_list_devices.str1.1
                0x000000008207a0be        0xc drivers/built-in.o
 .rodata.blk_print_device_num.str1.1
                0x000000008207a0be       0x11 drivers/built-in.o
 .rodata.blk_show_device.str1.1
                0x000000008207a0cf       0x1d drivers/built-in.o
 .rodata.blkc_configure.str1.1
                0x000000008207a0ec       0x30 cmd/built-in.o
 .rodata.blkc_show.str1.1
                0x000000008207a11c       0x4c cmd/built-in.o
 .rodata.board_eth_init.str1.1
                0x000000008207a168       0x37 board/freescale/ls1046afrwy/built-in.o
 .rodata.board_hwconfig
                0x000000008207a19f        0x1 common/built-in.o
                0x000000008207a19f                board_hwconfig
 .rodata.board_init_f.str1.1
                0x000000008207a1a0       0x31 common/built-in.o
 .rodata.board_init_r.str1.1
                0x000000008207a1d1       0x31 common/built-in.o
 .rodata.board_nand_init.str1.1
                0x000000008207a1d1       0x77 drivers/mtd/nand/raw/built-in.o
 .rodata.boot_fdt_add_mem_rsv_regions.str1.1
                0x000000008207a248       0x10 common/built-in.o
                                         0x14 (size before relaxing)
 .rodata.boot_fdt_reserve_region.str1.1
                0x000000008207a258       0x42 common/built-in.o
 .rodata.boot_get_fdt.str1.1
                0x000000008207a29a      0x1b5 common/built-in.o
                                        0x1d4 (size before relaxing)
 .rodata.boot_get_fdt_fit.str1.1
                0x000000008207a44f       0x3b common/built-in.o
 .rodata.boot_get_loadable.str1.1
                0x000000008207a48a       0x3e common/built-in.o
 .rodata.boot_get_ramdisk.str1.1
                0x000000008207a4c8       0xb7 common/built-in.o
                                        0x115 (size before relaxing)
 .rodata.boot_get_setup_fit.str1.1
                0x000000008207a57f       0x3b common/built-in.o
                                          0x6 (size before relaxing)
 .rodata.boot_jump_linux.str1.1
                0x000000008207a57f       0x30 arch/arm/lib/built-in.o
                                         0x31 (size before relaxing)
 .rodata.boot_prep_linux.str1.1
                0x000000008207a5af       0x51 arch/arm/lib/built-in.o
                                         0x5a (size before relaxing)
 .rodata.boot_prep_vxworks.str1.1
                0x000000008207a600       0x2a arch/arm/lib/built-in.o
 .rodata.boot_ramdisk_high.str1.1
                0x000000008207a62a       0x54 common/built-in.o
 .rodata.boot_relocate_fdt.str1.1
                0x000000008207a67e       0xcf common/built-in.o
                                         0xd3 (size before relaxing)
 .rodata.bootdelay_process.str1.1
                0x000000008207a74d       0x3a common/built-in.o
                                         0x42 (size before relaxing)
 .rodata.booti_setup.str1.1
                0x000000008207a787       0x4c arch/arm/lib/built-in.o
 .rodata.bootm_decomp_image.str1.1
                0x000000008207a7d3       0x99 common/built-in.o
                                         0xc0 (size before relaxing)
 .rodata.bootm_find_images.str1.1
                0x000000008207a86c       0x6c common/built-in.o
 .rodata.bootm_maybe_autostart.str1.1
                0x000000008207a8d8       0x3b cmd/built-in.o
 .rodata.bootp_request.str1.1
                0x000000008207a913       0x25 net/built-in.o
 .rodata.bootp_timeout_handler.str1.1
                0x000000008207a938       0x26 net/built-in.o
 .rodata.caam_hash.str1.1
                0x000000008207a95e       0x2a drivers/built-in.o
 .rodata.calculate_hash.str1.1
                0x000000008207a988        0x4 common/built-in.o
                                         0x16 (size before relaxing)
 .rodata.cas_latency_table.9557
                0x000000008207a98c       0x10 drivers/ddr/fsl/built-in.o
 .rodata.checkFileSize.str1.1
                0x000000008207a99c       0x2c board/freescale/ls1046afrwy/built-in.o
                                         0x2e (size before relaxing)
 .rodata.check_and_invalidate_dcache_range.isra.2.str1.1
                0x000000008207a9c8       0x1f drivers/built-in.o
 .rodata.check_fsl_memctl_config_regs.str1.1
                0x000000008207a9e7       0x5b drivers/ddr/fsl/built-in.o
 .rodata.check_interleaving_options.str1.1
                0x000000008207aa42       0x8d drivers/ddr/fsl/built-in.o
 .rodata.check_reg.str1.1
                0x000000008207aacf       0x33 drivers/power/built-in.o
 .rodata.checkboard.str1.1
                0x000000008207ab02       0x5e board/freescale/ls1046afrwy/built-in.o
 .rodata.cli_process_fdt.str1.1
                0x000000008207ab60        0xb common/built-in.o
                                         0x13 (size before relaxing)
 .rodata.cli_readline_into_buffer.str1.1
                0x000000008207ab6b        0x7 common/built-in.o
                                          0x8 (size before relaxing)
 .rodata.cli_secure_boot_cmd.str1.1
                0x000000008207ab72       0x50 common/built-in.o
 .rodata.cmd_auto_complete.str1.1
                0x000000008207abc2       0x5f common/built-in.o
                                          0xb (size before relaxing)
 .rodata.cmd_process.str1.1
                0x000000008207abc2       0x3f common/built-in.o
 .rodata.cmd_usage.str1.1
                0x000000008207ac01       0x36 common/built-in.o
 .rodata.common_diskboot.str1.1
                0x000000008207ac37       0x78 cmd/built-in.o
                                         0xbf (size before relaxing)
 .rodata.compile.str1.1
                0x000000008207acaf       0x4a lib/built-in.o
 .rodata.complete_subcmdv.str1.1
                0x000000008207acf9       0x36 common/built-in.o
                                          0x4 (size before relaxing)
 .rodata.compute_fsl_memctl_config_regs.str1.1
                0x000000008207acf9      0x1a7 drivers/ddr/fsl/built-in.o
 .rodata.compute_lowest_common_dimm_parameters.str1.1
                0x000000008207aea0      0x1e9 drivers/ddr/fsl/built-in.o
 .rodata.config_core_prefetch.str1.1
                0x000000008207b089       0x93 arch/arm/cpu/armv8/built-in.o
                                         0x99 (size before relaxing)
 .rodata.confirm_yesno.str1.1
                0x000000008207b11c       0x10 common/built-in.o
 .rodata.core_to_pos.str1.1
                0x000000008207b12c       0x1a arch/arm/cpu/armv8/built-in.o
 .rodata.cpu_cmd.str1.1
                0x000000008207b146       0x1c cmd/built-in.o
                                         0x39 (size before relaxing)
 .rodata.cpu_hwconfig
                0x000000008207b162        0x1 common/built-in.o
                0x000000008207b162                cpu_hwconfig
 .rodata.cpu_name.str1.1
                0x000000008207b163       0x12 arch/arm/cpu/armv8/built-in.o
                                         0x14 (size before relaxing)
 .rodata.cpu_reset.str1.1
                0x000000008207b175       0x1d arch/arm/cpu/armv8/built-in.o
 .rodata.cpu_status.str1.1
                0x000000008207b192       0x65 arch/arm/cpu/armv8/built-in.o
 .rodata.cread_add_char.str1.1
                0x000000008207b1f7        0x5 common/built-in.o
 .rodata.create_table.str1.1
                0x000000008207b1fc       0x62 arch/arm/cpu/armv8/built-in.o
 .rodata.ddr3_spd_check.str1.1
                0x000000008207b25e       0x7a common/built-in.o
 .rodata.ddr_compute_dimm_parameters.str1.1
                0x000000008207b2d8      0x14e drivers/ddr/fsl/built-in.o
 .rodata.default_environment
                0x000000008207b426     0x162e env/built-in.o
                0x000000008207b426                default_environment
 .rodata.dev_get_platdata.str1.1
                0x000000008207ca54       0x11 drivers/built-in.o
 .rodata.dev_print.str1.1
                0x000000008207ca65      0x165 disk/built-in.o
                                        0x176 (size before relaxing)
 .rodata.devfdt_get_addr_index.str1.1
                0x000000008207cbca        0x4 drivers/built-in.o
 .rodata.device_bind_common.isra.0.str1.1
                0x000000008207cbca       0x5b drivers/built-in.o
 .rodata.device_probe.str1.1
                0x000000008207cc25       0x30 drivers/built-in.o
 .rodata.device_remove.str1.1
                0x000000008207cc55       0x98 drivers/built-in.o
 .rodata.dhcp_extended.str1.1
                0x000000008207cced       0x37 net/built-in.o
                                         0x3f (size before relaxing)
 .rodata.dhcp_handler.str1.1
                0x000000008207cd24       0x41 net/built-in.o
                                         0x4a (size before relaxing)
 .rodata.dhcp_process_options.str1.1
                0x000000008207cd65       0x78 net/built-in.o
 .rodata.digits.10218
                0x000000008207cddd       0x10 lib/built-in.o
 .rodata.display_options.str1.1
                0x000000008207cded        0x3 lib/built-in.o
 .rodata.display_options_get_banner_priv.str1.1
                0x000000008207cded        0xc lib/built-in.o
                                         0x15 (size before relaxing)
 .rodata.dm_extended_scan_fdt.str1.1
                0x000000008207cdf9       0x12 drivers/built-in.o
 .rodata.dm_fdt_pre_reloc.str1.1
                0x000000008207ce0b       0x30 drivers/built-in.o
 .rodata.dm_init.str1.1
                0x000000008207ce3b       0x25 drivers/built-in.o
 .rodata.dm_pci_hose_probe_bus.str1.1
                0x000000008207ce60       0x36 drivers/built-in.o
 .rodata.dm_root.str1.1
                0x000000008207ce96       0x25 drivers/built-in.o
 .rodata.dm_scan_fdt_node.str1.1
                0x000000008207cebb       0x1d drivers/built-in.o
                                         0x2d (size before relaxing)
 .rodata.dm_scan_platdata.str1.1
                0x000000008207ced8       0x1d drivers/built-in.o
 .rodata.do_bad_error.str1.1
                0x000000008207cef5       0x29 arch/arm/lib/built-in.o
 .rodata.do_bad_fiq.str1.1
                0x000000008207cf1e       0x27 arch/arm/lib/built-in.o
 .rodata.do_bad_irq.str1.1
                0x000000008207cf45       0x27 arch/arm/lib/built-in.o
 .rodata.do_bad_sync.str1.1
                0x000000008207cf6c       0x48 arch/arm/lib/built-in.o
 .rodata.do_bdinfo.str1.1
                0x000000008207cfb4      0x106 cmd/built-in.o
                                        0x10e (size before relaxing)
 .rodata.do_bootd.str1.1
                0x000000008207d0ba        0x8 cmd/built-in.o
 .rodata.do_bootefi.str1.1
                0x000000008207d0ba       0xf4 cmd/built-in.o
 .rodata.do_bootefi_exec.str1.1
                0x000000008207d1ae       0xc0 cmd/built-in.o
                                         0xc9 (size before relaxing)
 .rodata.do_bootelf.str1.1
                0x000000008207d26e       0x52 cmd/built-in.o
                                         0x5c (size before relaxing)
 .rodata.do_bootm.str1.1
                0x000000008207d2c0       0x2a cmd/built-in.o
 .rodata.do_bootm_netbsd.str1.1
                0x000000008207d2ea       0x49 common/built-in.o
                                         0x51 (size before relaxing)
 .rodata.do_bootm_plan9.str1.1
                0x000000008207d333       0x43 common/built-in.o
                                         0x4a (size before relaxing)
 .rodata.do_bootm_qnxelf.str1.1
                0x000000008207d376        0x8 common/built-in.o
 .rodata.do_bootm_rtems.str1.1
                0x000000008207d376       0xc5 common/built-in.o
                                         0xcb (size before relaxing)
 .rodata.do_bootm_standalone.str1.1
                0x000000008207d43b       0x16 common/built-in.o
 .rodata.do_bootm_states.str1.1
                0x000000008207d43b      0x287 common/built-in.o
                                        0x2ff (size before relaxing)
 .rodata.do_bootm_vxworks.str1.1
                0x000000008207d6c2       0x57 common/built-in.o
                                         0x86 (size before relaxing)
 .rodata.do_bootvx.str1.1
                0x000000008207d719      0x1be cmd/built-in.o
                                        0x1d0 (size before relaxing)
 .rodata.do_coninfo.str1.1
                0x000000008207d8d7       0x2c cmd/built-in.o
                                         0x30 (size before relaxing)
 .rodata.do_dcache.str1.1
                0x000000008207d903       0x21 cmd/built-in.o
 .rodata.do_echo.str1.1
                0x000000008207d924        0x3 cmd/built-in.o
 .rodata.do_env_default.str1.1
                0x000000008207d927       0x25 cmd/built-in.o
 .rodata.do_env_edit.part.2.str1.1
                0x000000008207d94c        0x7 cmd/built-in.o
                                          0xa (size before relaxing)
 .rodata.do_env_export.str1.1
                0x000000008207d953       0x6b cmd/built-in.o
                                         0x74 (size before relaxing)
 .rodata.do_env_import.str1.1
                0x000000008207d9be      0x139 cmd/built-in.o
                                        0x13b (size before relaxing)
 .rodata.do_env_print.str1.1
                0x000000008207daf7       0x3d cmd/built-in.o
 .rodata.do_env_print_efi.str1.1
                0x000000008207db34       0x33 cmd/built-in.o
 .rodata.do_env_set_efi.str1.1
                0x000000008207db67        0xe cmd/built-in.o
 .rodata.do_error.str1.1
                0x000000008207db75       0x48 arch/arm/lib/built-in.o
                                         0x1d (size before relaxing)
 .rodata.do_fat_fsinfo.str1.1
                0x000000008207db75       0x56 cmd/built-in.o
 .rodata.do_fdt.str1.1
                0x000000008207dbcb      0x491 cmd/built-in.o
                                        0x4ea (size before relaxing)
 .rodata.do_fiq.str1.1
                0x000000008207e05c       0x48 arch/arm/lib/built-in.o
                                         0x1b (size before relaxing)
 .rodata.do_fixup_by_path.str1.1
                0x000000008207e05c       0x29 common/built-in.o
 .rodata.do_fs_uuid.str1.1
                0x000000008207e085        0x4 fs/built-in.o
 .rodata.do_get_any.str1.1
                0x000000008207e085        0x5 cmd/built-in.o
 .rodata.do_get_ext2.str1.1
                0x000000008207e085        0x9 cmd/built-in.o
 .rodata.do_get_fat.str1.1
                0x000000008207e085        0x8 cmd/built-in.o
 .rodata.do_get_tftp.str1.1
                0x000000008207e085        0x5 cmd/built-in.o
 .rodata.do_go.str1.1
                0x000000008207e085       0x4f cmd/built-in.o
 .rodata.do_gpt.str1.1
                0x000000008207e0d4       0xc0 cmd/built-in.o
                                         0xef (size before relaxing)
 .rodata.do_i2c_bus_num.str1.1
                0x000000008207e194       0x58 cmd/built-in.o
 .rodata.do_i2c_bus_speed.str1.1
                0x000000008207e1ec       0x53 cmd/built-in.o
 .rodata.do_i2c_crc.str1.1
                0x000000008207e23f       0x3e cmd/built-in.o
                                         0x45 (size before relaxing)
 .rodata.do_i2c_md.str1.1
                0x000000008207e27d        0xc cmd/built-in.o
                                         0x16 (size before relaxing)
 .rodata.do_i2c_probe.str1.1
                0x000000008207e289       0x1c cmd/built-in.o
 .rodata.do_i2c_show_bus.str1.1
                0x000000008207e2a5        0xb cmd/built-in.o
                                          0xd (size before relaxing)
 .rodata.do_i2c_write.str1.1
                0x000000008207e2b0        0x3 cmd/built-in.o
 .rodata.do_icache.str1.1
                0x000000008207e2b3       0x1d cmd/built-in.o
                                         0x20 (size before relaxing)
 .rodata.do_imgextract.str1.1
                0x000000008207e2d0      0x1af cmd/built-in.o
                                        0x296 (size before relaxing)
 .rodata.do_irq.str1.1
                0x000000008207e47f       0x48 arch/arm/lib/built-in.o
                                         0x1b (size before relaxing)
 .rodata.do_itest.str1.1
                0x000000008207e47f       0x1e cmd/built-in.o
 .rodata.do_load.str1.1
                0x000000008207e49d       0x39 fs/built-in.o
                                         0x5b (size before relaxing)
 .rodata.do_load_serial.str1.1
                0x000000008207e4d6       0x6b cmd/built-in.o
 .rodata.do_load_serial_bin.str1.1
                0x000000008207e541      0x159 cmd/built-in.o
 .rodata.do_load_wrapper.str1.1
                0x000000008207e69a        0x1 cmd/built-in.o
 .rodata.do_ls.str1.1
                0x000000008207e69a        0x2 fs/built-in.o
 .rodata.do_lzmadec.str1.1
                0x000000008207e69a       0x1f cmd/built-in.o
                                         0x28 (size before relaxing)
 .rodata.do_mac.str1.1
                0x000000008207e6b9      0x152 board/freescale/common/built-in.o
                                        0x153 (size before relaxing)
 .rodata.do_mdio.str1.1
                0x000000008207e80b       0x5e cmd/built-in.o
                                         0x65 (size before relaxing)
 .rodata.do_mem_base.str1.1
                0x000000008207e869       0x17 cmd/built-in.o
 .rodata.do_mem_cmp.str1.1
                0x000000008207e880       0x6a cmd/built-in.o
                                         0x6f (size before relaxing)
 .rodata.do_mem_cp.str1.1
                0x000000008207e8ea       0x11 cmd/built-in.o
 .rodata.do_mem_crc.str1.1
                0x000000008207e8fb        0x6 cmd/built-in.o
 .rodata.do_mii.str1.1
                0x000000008207e8fb      0x294 cmd/built-in.o
                                        0x2b0 (size before relaxing)
 .rodata.do_mmc_dev.str1.1
                0x000000008207eb8f       0x80 cmd/built-in.o
                                         0x89 (size before relaxing)
 .rodata.do_mmc_erase.str1.1
                0x000000008207ec0f       0x67 cmd/built-in.o
 .rodata.do_mmc_hwpartition.str1.1
                0x000000008207ec76      0x126 cmd/built-in.o
                                        0x142 (size before relaxing)
 .rodata.do_mmc_part.str1.1
                0x000000008207ed9c       0x15 cmd/built-in.o
 .rodata.do_mmc_read.str1.1
                0x000000008207edb1       0x43 cmd/built-in.o
 .rodata.do_mmc_setdsr.str1.1
                0x000000008207edf4       0x1d cmd/built-in.o
 .rodata.do_mmc_write.str1.1
                0x000000008207ee11       0x47 cmd/built-in.o
 .rodata.do_mmcinfo.str1.1
                0x000000008207ee58      0x135 cmd/built-in.o
                                        0x187 (size before relaxing)
 .rodata.do_mmcops.str1.1
                0x000000008207ef8d       0x19 cmd/built-in.o
 .rodata.do_nand.str1.1
                0x000000008207efa6      0x385 cmd/built-in.o
                                        0x3d1 (size before relaxing)
 .rodata.do_nandboot.str1.1
                0x000000008207f32b       0xe1 cmd/built-in.o
 .rodata.do_part.str1.1
                0x000000008207f40c       0x33 cmd/built-in.o
                                         0x15 (size before relaxing)
 .rodata.do_part_info.str1.1
                0x000000008207f40c        0x4 cmd/built-in.o
                                          0x8 (size before relaxing)
 .rodata.do_part_list.str1.1
                0x000000008207f410       0x22 cmd/built-in.o
                                         0x25 (size before relaxing)
 .rodata.do_pci.str1.1
                0x000000008207f432       0xfd cmd/built-in.o
                                        0x103 (size before relaxing)
 .rodata.do_ping.str1.1
                0x000000008207f52f       0x35 cmd/built-in.o
 .rodata.do_pmic.str1.1
                0x000000008207f564       0xd0 drivers/power/built-in.o
                                         0xf7 (size before relaxing)
 .rodata.do_pxe_boot.str1.1
                0x000000008207f634       0x38 cmd/built-in.o
 .rodata.do_pxe_get.str1.1
                0x000000008207f66c       0x41 cmd/built-in.o
                                         0x46 (size before relaxing)
 .rodata.do_reset.str1.1
                0x000000008207f6ad       0x33 arch/arm/lib/built-in.o
 .rodata.do_run.str1.1
                0x000000008207f6e0       0x1c common/built-in.o
 .rodata.do_save.str1.1
                0x000000008207f6e0       0x1d fs/built-in.o
 .rodata.do_scsi.str1.1
                0x000000008207f6fd       0x11 cmd/built-in.o
                                         0x16 (size before relaxing)
 .rodata.do_scsiboot.str1.1
                0x000000008207f70e       0x11 cmd/built-in.o
                                          0x5 (size before relaxing)
 .rodata.do_setexpr.str1.1
                0x000000008207f70e       0x11 cmd/built-in.o
                                         0x15 (size before relaxing)
 .rodata.do_showvar.str1.1
                0x000000008207f71f        0xc common/built-in.o
                                         0x2f (size before relaxing)
 .rodata.do_size.str1.1
                0x000000008207f72b        0x9 fs/built-in.o
 .rodata.do_source.str1.1
                0x000000008207f72b       0x1e cmd/built-in.o
 .rodata.do_spi_flash.str1.1
                0x000000008207f749      0x1ea cmd/built-in.o
                                        0x225 (size before relaxing)
 .rodata.do_sync.str1.1
                0x000000008207f933       0x48 arch/arm/lib/built-in.o
                                         0x29 (size before relaxing)
 .rodata.do_sysboot.str1.1
                0x000000008207f933       0x43 cmd/built-in.o
 .rodata.do_unzip.str1.1
                0x000000008207f976       0x20 cmd/built-in.o
                                         0x29 (size before relaxing)
 .rodata.do_update_uboot.str1.1
                0x000000008207f996      0x1ae board/freescale/ls1046afrwy/built-in.o
 .rodata.do_usb.str1.1
                0x000000008207fb44      0x279 cmd/built-in.o
                                        0x293 (size before relaxing)
 .rodata.do_usbboot.str1.1
                0x000000008207fdbd        0x4 cmd/built-in.o
 .rodata.do_version.str1.1
                0x000000008207fdc1       0x69 cmd/built-in.o
 .rodata.dwc3_core_init.str1.1
                0x000000008207fe2a       0x28 drivers/usb/host/built-in.o
 .rodata.e1000_init.str1.1
                0x000000008207fe52       0x86 drivers/net/built-in.o
 .rodata.e1000_initialize.str1.1
                0x000000008207fed8      0x215 drivers/net/built-in.o
 .rodata.efi_bl_bind.str1.1
                0x00000000820800ed       0x12 lib/built-in.o
 .rodata.efi_bootmgr_load.str1.1
                0x00000000820800ff       0x25 lib/built-in.o
 .rodata.efi_console_register.str1.1
                0x0000000082080124       0x9b lib/built-in.o
                                         0xb8 (size before relaxing)
 .rodata.efi_convert_single_device_node_to_text.str1.1
                0x00000000820801bf      0x12d lib/built-in.o
                                        0x137 (size before relaxing)
 .rodata.efi_cout_clear_screen.str1.1
                0x00000000820802ec        0x5 lib/built-in.o
 .rodata.efi_cout_enable_cursor.str1.1
                0x00000000820802f1        0x8 lib/built-in.o
 .rodata.efi_cout_set_attribute.str1.1
                0x00000000820802f9       0x17 lib/built-in.o
 .rodata.efi_cout_set_cursor_position.str1.1
                0x0000000082080310        0x9 lib/built-in.o
 .rodata.efi_disk_create_partitions.str1.1
                0x0000000082080319       0x22 lib/built-in.o
 .rodata.efi_disk_register.str1.1
                0x000000008208033b       0x67 lib/built-in.o
 .rodata.efi_dp_from_name.str1.1
                0x00000000820803a2        0x4 lib/built-in.o
                                          0x7 (size before relaxing)
 .rodata.efi_driver_init.str1.1
                0x00000000820803a6       0x58 lib/built-in.o
 .rodata.efi_dump_single_var.str1.1
                0x00000000820803fe       0x33 cmd/built-in.o
                                         0x38 (size before relaxing)
 .rodata.efi_exit.str1.1
                0x0000000082080431       0x17 lib/built-in.o
 .rodata.efi_file_from_path.str1.1
                0x0000000082080448       0x10 lib/built-in.o
 .rodata.efi_get_next_variable_name.str1.1
                0x0000000082080458       0x16 lib/built-in.o
 .rodata.efi_get_variable.str1.1
                0x000000008208046e        0x7 lib/built-in.o
                                          0xe (size before relaxing)
 .rodata.efi_install_fdt.str1.1
                0x0000000082080475       0x93 cmd/built-in.o
 .rodata.efi_load_pe.str1.1
                0x0000000082080508       0xca lib/built-in.o
 .rodata.efi_net_register.str1.1
                0x00000000820805d2       0x6d lib/built-in.o
                                         0x83 (size before relaxing)
 .rodata.efi_set_code_and_data_type.str1.1
                0x000000008208063f       0x1c lib/built-in.o
 .rodata.efi_set_variable.str1.1
                0x000000008208065b       0x14 lib/built-in.o
                                         0x1a (size before relaxing)
 .rodata.efi_setup_loaded_image.str1.1
                0x000000008208066f       0x36 lib/built-in.o
 .rodata.efi_to_native.str1.1
                0x00000000820806a5       0x34 lib/built-in.o
 .rodata.efi_uc_destroy.str1.1
                0x00000000820806d9       0x18 lib/built-in.o
 .rodata.efi_uc_init.str1.1
                0x00000000820806f1       0x1e lib/built-in.o
 .rodata.efi_uc_stop.str1.1
                0x000000008208070f       0x1d lib/built-in.o
 .rodata.efi_watchdog_register.str1.1
                0x000000008208072c       0x4f lib/built-in.o
 .rodata.efi_watchdog_timer_notify.str1.1
                0x000000008208077b       0x18 lib/built-in.o
 .rodata.emit.str1.1
                0x0000000082080793       0x1f lib/built-in.o
 .rodata.env_callback_init.str1.1
                0x00000000820807b2        0xb env/built-in.o
 .rodata.env_complete.str1.1
                0x00000000820807bd        0x7 env/built-in.o
                                         0x10 (size before relaxing)
 .rodata.env_export.str1.1
                0x00000000820807c4        0x7 env/built-in.o
                                         0x27 (size before relaxing)
 .rodata.env_flags_init.str1.1
                0x00000000820807c4        0x7 env/built-in.o
 .rodata.env_flags_parse_varaccess.str1.1
                0x00000000820807cb       0x3d env/built-in.o
 .rodata.env_flags_parse_vartype.str1.1
                0x0000000082080808       0x34 env/built-in.o
 .rodata.env_flags_validate.str1.1
                0x000000008208083c       0xb2 env/built-in.o
                                         0xb3 (size before relaxing)
 .rodata.env_flags_varaccess_rep
                0x00000000820808ee        0x5 env/built-in.o
 .rodata.env_flags_vartype_rep
                0x00000000820808f3        0x7 env/built-in.o
 .rodata.env_get_bootm_low.str1.1
                0x00000000820808fa        0xa common/built-in.o
 .rodata.env_get_bootm_mapsize.str1.1
                0x0000000082080904        0xe common/built-in.o
 .rodata.env_get_bootm_size.str1.1
                0x0000000082080912        0xb common/built-in.o
 .rodata.env_get_f.str1.1
                0x000000008208091d       0x30 cmd/built-in.o
 .rodata.env_import.str1.1
                0x000000008208094d       0x3d env/built-in.o
 .rodata.env_load.str1.1
                0x000000008208098a       0x20 env/built-in.o
                                         0x24 (size before relaxing)
 .rodata.env_mmc_load.str1.1
                0x00000000820809aa        0xd env/built-in.o
 .rodata.env_mmc_save.str1.1
                0x00000000820809b7       0x3b env/built-in.o
                                         0x48 (size before relaxing)
 .rodata.env_print.str1.1
                0x00000000820809f2       0x25 cmd/built-in.o
                                         0x2c (size before relaxing)
 .rodata.env_save.str1.1
                0x0000000082080a17       0x2a env/built-in.o
 .rodata.env_set.str1.1
                0x0000000082080a41        0x7 cmd/built-in.o
 .rodata.env_set_hex.str1.1
                0x0000000082080a48        0x4 cmd/built-in.o
 .rodata.env_sf_load.str1.1
                0x0000000082080a48       0x28 env/built-in.o
 .rodata.env_sf_save.part.0.str1.1
                0x0000000082080a70       0x2d env/built-in.o
                                         0x33 (size before relaxing)
 .rodata.erase_seq
                0x0000000082080a9d        0x4 common/built-in.o
 .rodata.eth_current_changed.str1.1
                0x0000000082080aa1       0x11 net/built-in.o
                                         0x14 (size before relaxing)
 .rodata.eth_env_get_enetaddr_by_index.str1.1
                0x0000000082080ab2       0x10 net/built-in.o
 .rodata.eth_env_set_enetaddr.str1.1
                0x0000000082080ac2        0x4 cmd/built-in.o
 .rodata.eth_get_dev_by_name.str1.1
                0x0000000082080ac6       0x41 net/built-in.o
                                         0x5a (size before relaxing)
 .rodata.eth_get_name.str1.1
                0x0000000082080b07        0x8 net/built-in.o
 .rodata.eth_initialize.str1.1
                0x0000000082080b07       0x96 net/built-in.o
                                         0xb0 (size before relaxing)
 .rodata.eth_mac_skip.str1.1
                0x0000000082080b9d       0x18 net/built-in.o
 .rodata.eth_set_current.str1.1
                0x0000000082080bb5        0x9 net/built-in.o
 .rodata.eth_write_hwaddr.str1.1
                0x0000000082080bb5       0xd4 net/built-in.o
 .rodata.ext4_read_file.str1.1
                0x0000000082080c89       0x19 fs/built-in.o
 .rodata.ext4fs_iterate_dir.str1.1
                0x0000000082080ca2       0x43 fs/built-in.o
                                         0x4a (size before relaxing)
 .rodata.ext4fs_ls.str1.1
                0x0000000082080ce5       0x1f fs/built-in.o
 .rodata.ext4fs_mount.str1.1
                0x0000000082080d04       0x24 fs/built-in.o
 .rodata.extract_env.str1.1
                0x0000000082080d28        0x3 cmd/built-in.o
 .rodata.extract_val.str1.1
                0x0000000082080d2b        0x3 cmd/built-in.o
                                          0x4 (size before relaxing)
 .rodata.fat_itr_resolve.str1.1
                0x0000000082080d2b      0x240 fs/built-in.o
                                          0x5 (size before relaxing)
 .rodata.fat_itr_root.str1.1
                0x0000000082080d2b       0x85 fs/built-in.o
 .rodata.fat_read_file.str1.1
                0x0000000082080db0       0x1e fs/built-in.o
 .rodata.fat_set_blk_dev.str1.1
                0x0000000082080dce        0x3 fs/built-in.o
                                          0xd (size before relaxing)
 .rodata.fdt_address_cells.str1.1
                0x0000000082080dd1        0xf lib/built-in.o
 .rodata.fdt_chosen.str1.1
                0x0000000082080de0       0x40 common/built-in.o
                                         0x63 (size before relaxing)
 .rodata.fdt_create_phandle.str1.1
                0x0000000082080e20       0x1a common/built-in.o
 .rodata.fdt_error.str1.1
                0x0000000082080e3a       0x2d common/built-in.o
 .rodata.fdt_find_or_add_subnode.str1.1
                0x0000000082080e67        0xc common/built-in.o
 .rodata.fdt_fixup_bportals.str1.1
                0x0000000082080e73       0x29 drivers/built-in.o
 .rodata.fdt_fixup_crypto_node.str1.1
                0x0000000082080e9c       0x86 drivers/built-in.o
                                         0x8d (size before relaxing)
 .rodata.fdt_fixup_esdhc.str1.1
                0x0000000082080f22       0x1a drivers/built-in.o
 .rodata.fdt_fixup_ethernet.str1.1
                0x0000000082080f22       0x24 common/built-in.o
                                         0x5c (size before relaxing)
 .rodata.fdt_fixup_fman_ethernet.str1.1
                0x0000000082080f46        0xf drivers/net/fm/built-in.o
 .rodata.fdt_fixup_fman_firmware.str1.1
                0x0000000082080f55      0x1cf drivers/net/fm/built-in.o
                                        0x1e8 (size before relaxing)
 .rodata.fdt_fixup_fman_icids.str1.1
                0x0000000082081124       0x3c arch/arm/cpu/armv8/built-in.o
 .rodata.fdt_fixup_fman_port_icid_by_compat.str1.1
                0x0000000082081160       0x87 arch/arm/cpu/armv8/built-in.o
 .rodata.fdt_fixup_icid_tbl.str1.1
                0x00000000820811e7       0x25 arch/arm/cpu/armv8/built-in.o
 .rodata.fdt_fixup_kaslr.str1.1
                0x000000008208120c       0x6b arch/arm/cpu/armv8/built-in.o
                                         0x72 (size before relaxing)
 .rodata.fdt_fixup_memory_banks.str1.1
                0x0000000082081277       0x75 common/built-in.o
                                         0x94 (size before relaxing)
 .rodata.fdt_fixup_phy_connection.str1.1
                0x00000000820812ec       0x14 arch/arm/cpu/armv8/built-in.o
 .rodata.fdt_fixup_qportals.str1.1
                0x0000000082081300       0x53 drivers/built-in.o
                                         0x69 (size before relaxing)
 .rodata.fdt_fixup_remove_jr.str1.1
                0x0000000082081353       0x1d arch/arm/cpu/armv8/built-in.o
 .rodata.fdt_get_alias_namelen.str1.1
                0x0000000082081370        0x9 lib/built-in.o
 .rodata.fdt_get_phandle.str1.1
                0x0000000082081370       0x16 lib/built-in.o
 .rodata.fdt_get_smmu_phandle.str1.1
                0x0000000082081370       0x55 arch/arm/cpu/armv8/built-in.o
 .rodata.fdt_initrd.str1.1
                0x00000000820813c5       0x90 common/built-in.o
                                         0x97 (size before relaxing)
 .rodata.fdt_node_check_compatible.str1.1
                0x0000000082081455        0xb lib/built-in.o
 .rodata.fdt_psci.str1.1
                0x0000000082081455       0x29 arch/arm/lib/built-in.o
                                         0x82 (size before relaxing)
 .rodata.fdt_root.str1.1
                0x000000008208147e       0x4e common/built-in.o
 .rodata.fdt_set_iommu_prop.str1.1
                0x00000000820814cc       0x29 arch/arm/cpu/armv8/built-in.o
 .rodata.fdt_set_node_status.str1.1
                0x00000000820814f5       0x25 common/built-in.o
                                         0x2a (size before relaxing)
 .rodata.fdt_set_phandle.str1.1
                0x000000008208151a        0xe common/built-in.o
                                         0x16 (size before relaxing)
 .rodata.fdt_size_cells.str1.1
                0x0000000082081528        0xc lib/built-in.o
 .rodata.fdt_strerror.str1.1
                0x0000000082081528       0x31 lib/built-in.o
 .rodata.fdt_support_default_count_cells.str1.1
                0x0000000082081559        0xc common/built-in.o
 .rodata.fdt_translate_address.str1.1
                0x0000000082081565       0x22 common/built-in.o
 .rodata.fdt_update_ethernet_dt.str1.1
                0x0000000082081587       0x4b board/freescale/ls1046afrwy/built-in.o
 .rodata.fdt_valid.str1.1
                0x00000000820815d2       0x79 cmd/built-in.o
                                         0x7b (size before relaxing)
 .rodata.fdtdec_add_aliases_for_id.str1.1
                0x000000008208164b        0x9 lib/built-in.o
 .rodata.fdtdec_get_config_int.str1.1
                0x000000008208164b        0x8 lib/built-in.o
 .rodata.fdtdec_get_is_enabled.str1.1
                0x0000000082081653        0xc lib/built-in.o
 .rodata.fdtdec_prepare_fdt.str1.1
                0x0000000082081653       0x96 lib/built-in.o
 .rodata.fdtdec_setup.str1.1
                0x00000000820816e9        0xf lib/built-in.o
 .rodata.file_fat_detectfs.str1.1
                0x00000000820816e9       0x5c fs/built-in.o
                                         0x84 (size before relaxing)
 .rodata.file_fat_read_at.str1.1
                0x0000000082081745       0x2a fs/built-in.o
 .rodata.file_get.str1.1
                0x000000008208176f        0xc common/built-in.o
                                          0x7 (size before relaxing)
 .rodata.file_open.str1.1
                0x000000008208176f        0xa lib/built-in.o
                                          0xb (size before relaxing)
 .rodata.find_mmc_device.str1.1
                0x0000000082081779       0x19 drivers/built-in.o
 .rodata.fit_all_image_verify.str1.1
                0x0000000082081792       0x51 common/built-in.o
 .rodata.fit_get_desc.str1.1
                0x00000000820817e3        0xc common/built-in.o
 .rodata.fit_image_get_address.str1.1
                0x00000000820817ef       0x1d common/built-in.o
 .rodata.fit_image_get_arch.str1.1
                0x000000008208180c       0x1d common/built-in.o
                                          0x5 (size before relaxing)
 .rodata.fit_image_get_comp.str1.1
                0x000000008208180c        0xc common/built-in.o
 .rodata.fit_image_get_data.str1.1
                0x000000008208180c        0x5 common/built-in.o
 .rodata.fit_image_get_data_offset.str1.1
                0x0000000082081811        0xc common/built-in.o
 .rodata.fit_image_get_data_position.str1.1
                0x000000008208181d        0xe common/built-in.o
 .rodata.fit_image_get_data_size.str1.1
                0x000000008208182b        0xa common/built-in.o
 .rodata.fit_image_get_entry.str1.1
                0x0000000082081835        0x6 common/built-in.o
 .rodata.fit_image_get_load.str1.1
                0x000000008208183b        0x5 common/built-in.o
 .rodata.fit_image_get_node.str1.1
                0x000000008208183b        0x8 common/built-in.o
 .rodata.fit_image_get_os.str1.1
                0x000000008208183b        0x6 common/built-in.o
                                          0x3 (size before relaxing)
 .rodata.fit_image_get_type.str1.1
                0x000000008208183b        0x6 common/built-in.o
                                          0x5 (size before relaxing)
 .rodata.fit_image_hash_get_algo.str1.1
                0x000000008208183b        0x5 common/built-in.o
 .rodata.fit_image_hash_get_value.str1.1
                0x0000000082081840        0x5 common/built-in.o
                                          0x6 (size before relaxing)
 .rodata.fit_image_load.str1.1
                0x0000000082081840      0x1c5 common/built-in.o
                                        0x1e0 (size before relaxing)
 .rodata.fit_image_print.str1.1
                0x0000000082081a05       0xd2 common/built-in.o
                                         0xdf (size before relaxing)
 .rodata.fit_image_print_data.str1.1
                0x0000000082081ad7       0x83 common/built-in.o
                                         0x91 (size before relaxing)
 .rodata.fit_image_print_verification_data.str1.1
                0x0000000082081b5a        0xa common/built-in.o
                                         0x19 (size before relaxing)
 .rodata.fit_image_verify.str1.1
                0x0000000082081b64       0x1a common/built-in.o
                                         0x4b (size before relaxing)
 .rodata.fit_image_verify_with_data.str1.1
                0x0000000082081b7e       0xe0 common/built-in.o
 .rodata.fit_print_contents.str1.1
                0x0000000082081c5e      0x127 common/built-in.o
                                        0x15e (size before relaxing)
 .rodata.fm_eth_initialize.str1.1
                0x0000000082081d85       0x8e drivers/net/fm/built-in.o
 .rodata.fm_eth_open.str1.1
                0x0000000082081e13       0x4c drivers/net/fm/built-in.o
 .rodata.fm_eth_recv.str1.1
                0x0000000082081e5f        0xe drivers/net/fm/built-in.o
 .rodata.fm_eth_send.str1.1
                0x0000000082081e6d       0x51 drivers/net/fm/built-in.o
 .rodata.fm_init_common.str1.1
                0x0000000082081ebe      0x223 drivers/net/fm/built-in.o
                                        0x22e (size before relaxing)
 .rodata.fm_memac_mdio_init.str1.1
                0x00000000820820e1       0x25 drivers/net/fm/built-in.o
 .rodata.fm_muram_alloc.str1.1
                0x0000000082082106       0x15 drivers/net/fm/built-in.o
 .rodata.format_mac_pxe.constprop.6.str1.1
                0x000000008208211b       0x25 cmd/built-in.o
 .rodata.from_env.str1.1
                0x0000000082082140       0x22 cmd/built-in.o
 .rodata.fs_devread.str1.1
                0x0000000082082162       0x98 fs/built-in.o
 .rodata.fs_ls_generic.str1.1
                0x00000000820821fa       0x37 fs/built-in.o
 .rodata.fs_probe_unsupported.str1.1
                0x0000000082082231       0x24 fs/built-in.o
 .rodata.fs_read_lmb_check.isra.0.str1.1
                0x0000000082082255       0x34 fs/built-in.o
 .rodata.fs_write.str1.1
                0x0000000082082289       0x1f fs/built-in.o
 .rodata.fsl_ddr_compute.str1.1
                0x00000000820822a8       0x73 drivers/ddr/fsl/built-in.o
 .rodata.fsl_ddr_get_spd.str1.1
                0x000000008208231b       0x1d drivers/ddr/fsl/built-in.o
 .rodata.fsl_ddr_get_version.str1.1
                0x0000000082082338       0x1d drivers/ddr/fsl/built-in.o
 .rodata.fsl_esdhc_probe.str1.1
                0x0000000082082338       0xb3 drivers/built-in.o
                                         0xbd (size before relaxing)
 .rodata.fsl_esdhc_send_cmd.str1.1
                0x00000000820823eb       0xb8 drivers/built-in.o
 .rodata.fsl_ifc_cmdfunc.str1.1
                0x00000000820824a3       0x26 drivers/mtd/nand/raw/built-in.o
 .rodata.fsl_ifc_read_buf.str1.1
                0x00000000820824c9       0x36 drivers/mtd/nand/raw/built-in.o
 .rodata.fsl_ifc_read_byte.str1.1
                0x00000000820824ff       0x19 drivers/mtd/nand/raw/built-in.o
 .rodata.fsl_ifc_read_page.str1.1
                0x0000000082082518       0x2d drivers/mtd/nand/raw/built-in.o
 .rodata.fsl_ifc_run_command.str1.1
                0x0000000082082545       0x33 drivers/mtd/nand/raw/built-in.o
 .rodata.fsl_ifc_write_buf.str1.1
                0x0000000082082578       0x45 drivers/mtd/nand/raw/built-in.o
 .rodata.fsl_layerscape_wake_seconday_cores.str1.1
                0x00000000820825bd       0x66 arch/arm/cpu/armv8/built-in.o
 .rodata.fsl_qspi_ofdata_to_platdata.str1.1
                0x0000000082082623       0x1e drivers/spi/built-in.o
                                         0x49 (size before relaxing)
 .rodata.fsl_setenv_bootcmd.str1.1
                0x0000000082082641       0x9b arch/arm/cpu/armv8/built-in.o
                                         0xa3 (size before relaxing)
 .rodata.ft_cpu_setup.str1.1
                0x00000000820826dc       0x2d arch/arm/cpu/armv8/built-in.o
 .rodata.ft_fixup_cpu.str1.1
                0x0000000082082709       0xb5 arch/arm/cpu/armv8/built-in.o
 .rodata.ft_fixup_port.str1.1
                0x00000000820827be        0xd drivers/net/fm/built-in.o
                                         0x1d (size before relaxing)
 .rodata.ft_pci_setup.str1.1
                0x00000000820827cb       0x4e drivers/built-in.o
                                         0x5a (size before relaxing)
 .rodata.genimg_get_arch_id.str1.1
                0x0000000082082819        0xb common/built-in.o
                                          0x4 (size before relaxing)
 .rodata.genimg_get_arch_name.str1.1
                0x0000000082082819       0x15 common/built-in.o
 .rodata.genimg_get_comp_id.str1.1
                0x000000008208282e       0x15 common/built-in.o
                                          0xc (size before relaxing)
 .rodata.genimg_get_comp_name.str1.1
                0x000000008208282e       0x14 common/built-in.o
 .rodata.genimg_get_os_id.str1.1
                0x0000000082082842       0x14 common/built-in.o
                                          0x3 (size before relaxing)
 .rodata.genimg_get_os_name.str1.1
                0x0000000082082842        0xb common/built-in.o
 .rodata.genimg_get_type_id.str1.1
                0x000000008208284d        0xb common/built-in.o
                                          0x6 (size before relaxing)
 .rodata.genimg_get_type_name.str1.1
                0x000000008208284d        0xe common/built-in.o
 .rodata.genimg_print_size.str1.1
                0x000000008208285b        0xc common/built-in.o
                                          0xe (size before relaxing)
 .rodata.genphy_update_link.str1.1
                0x0000000082082867       0x54 drivers/net/phy/built-in.o
                                         0x56 (size before relaxing)
 .rodata.get_core_volt_from_fuse.str1.1
                0x00000000820828bb       0x21 arch/arm/cpu/armv8/built-in.o
 .rodata.get_current.str1.1
                0x00000000820828dc       0x15 drivers/serial/built-in.o
 .rodata.get_descriptor_len.str1.1
                0x00000000820828f1       0x64 common/built-in.o
 .rodata.get_effective_memsize.str1.1
                0x0000000082082955       0x2b arch/arm/cpu/armv8/built-in.o
 .rodata.get_fatent.str1.1
                0x0000000082082980       0x22 fs/built-in.o
 .rodata.get_local_var.str1.1
                0x00000000820829a2        0xc common/built-in.o
                                          0x3 (size before relaxing)
 .rodata.get_phy_device_by_mask.str1.1
                0x00000000820829a2       0x29 drivers/net/phy/built-in.o
 .rodata.get_pxe_file.str1.1
                0x00000000820829cb        0x9 cmd/built-in.o
 .rodata.get_pxelinux_path.str1.1
                0x00000000820829cb       0x3e cmd/built-in.o
 .rodata.get_relfile.str1.1
                0x0000000082082a09       0x56 cmd/built-in.o
                                         0x63 (size before relaxing)
 .rodata.get_sys_info.str1.1
                0x0000000082082a5f       0x24 arch/arm/cpu/armv8/built-in.o
 .rodata.gpt_fill_header.str1.1
                0x0000000082082a83       0x24 disk/built-in.o
 .rodata.gpt_fill_pte.str1.1
                0x0000000082082aa7       0x5b disk/built-in.o
 .rodata.gpt_verify_partitions.str1.1
                0x0000000082082b02       0xa3 disk/built-in.o
 .rodata.gzip_parse_header.str1.1
                0x0000000082082ba5       0x3e lib/built-in.o
 .rodata.gzwrite.str1.1
                0x0000000082082be3      0x149 lib/built-in.o
 .rodata.gzwrite_progress.str1.1
                0x0000000082082d2c        0xb lib/built-in.o
 .rodata.gzwrite_progress_finish.str1.1
                0x0000000082082d37       0x4e lib/built-in.o
 .rodata.handle_include.str1.1
                0x0000000082082d85       0x33 cmd/built-in.o
 .rodata.handle_pxe_menu.str1.1
                0x0000000082082db8       0x15 cmd/built-in.o
                                         0x18 (size before relaxing)
 .rodata.hang.str1.1
                0x0000000082082dcd       0x2a lib/built-in.o
 .rodata.hash_command.str1.1
                0x0000000082082df7       0x58 common/built-in.o
                                         0x5f (size before relaxing)
 .rodata.hdr.10768
                0x0000000082082e4f        0x5 drivers/built-in.o
 .rodata.hex_asc
                0x0000000082082e54       0x11 lib/built-in.o
                0x0000000082082e54                hex_asc
 .rodata.hex_dump_to_buffer.str1.1
                0x0000000082082e65       0x1c lib/built-in.o
                                         0x1f (size before relaxing)
 .rodata.hexport_r.str1.1
                0x0000000082082e81       0x30 lib/built-in.o
 .rodata.himport_r.str1.1
                0x0000000082082eb1       0x99 lib/built-in.o
 .rodata.hw_sha256.str1.1
                0x0000000082082f4a       0x2d drivers/built-in.o
 .rodata.hwconfig_sub_f.str1.1
                0x0000000082082f77        0x3 common/built-in.o
 .rodata.i2c_get_adapter.str1.1
                0x0000000082082f7a       0x2d drivers/i2c/built-in.o
 .rodata.i2c_imx_stop.str1.1
                0x0000000082082fa7       0x18 drivers/i2c/built-in.o
 .rodata.i2c_init_transfer.str1.1
                0x0000000082082fbf       0x3f drivers/i2c/built-in.o
 .rodata.illegal
                0x0000000082082ffe        0xa lib/built-in.o
 .rodata.image_info.str1.1
                0x0000000082083008       0xef cmd/built-in.o
 .rodata.image_print_contents.str1.1
                0x00000000820830f7       0xd0 common/built-in.o
                                         0xd4 (size before relaxing)
 .rodata.image_setup_libfdt.str1.1
                0x00000000820831c7       0xbb common/built-in.o
 .rodata.inflate.str1.1
                0x0000000082083282      0x158 lib/built-in.o
 .rodata.inflate_fast.str1.1
                0x00000000820833da       0x50 lib/built-in.o
 .rodata.inhibit_portals.str1.1
                0x000000008208342a       0x3d drivers/built-in.o
 .rodata.init_baud_rate.str1.1
                0x0000000082083467        0x9 common/built-in.o
 .rodata.init_func_i2c.str1.1
                0x0000000082083470        0x8 common/built-in.o
                                          0xf (size before relaxing)
 .rodata.init_mmc_device.str1.1
                0x0000000082083478       0x1a cmd/built-in.o
 .rodata.initr_env.str1.1
                0x0000000082083492       0x20 common/built-in.o
                                         0x29 (size before relaxing)
 .rodata.initr_ethaddr.str1.1
                0x00000000820834b2        0x8 common/built-in.o
 .rodata.initr_mmc.str1.1
                0x00000000820834b2        0x8 common/built-in.o
 .rodata.initr_nand.str1.1
                0x00000000820834ba       0x11 common/built-in.o
 .rodata.initr_net.str1.1
                0x00000000820834cb        0x8 common/built-in.o
 .rodata.insert_var_value_sub.str1.1
                0x00000000820834d3        0x6 common/built-in.o
 .rodata.ip_to_string.str1.1
                0x00000000820834d9        0xc net/built-in.o
 .rodata.is_gpt_valid.str1.1
                0x00000000820834e5       0xea disk/built-in.o
 .rodata.label_boot.str1.1
                0x00000000820835cf      0x179 cmd/built-in.o
                                        0x1bc (size before relaxing)
 .rodata.label_print.str1.1
                0x0000000082083748        0x8 cmd/built-in.o
 .rodata.list_sort.str1.1
                0x0000000082083750       0x34 lib/built-in.o
 .rodata.lists_bind_drivers.str1.1
                0x0000000082083784       0x1a drivers/built-in.o
 .rodata.lists_bind_fdt.str1.1
                0x000000008208379e       0x3f drivers/built-in.o
                                         0x4a (size before relaxing)
 .rodata.lmb_alloc_base.str1.1
                0x00000000820837dd       0x34 lib/built-in.o
 .rodata.load_serial.str1.1
                0x0000000082083811       0x65 cmd/built-in.o
 .rodata.load_serial_ymodem.str1.1
                0x0000000082083876       0x31 cmd/built-in.o
                                         0x35 (size before relaxing)
 .rodata.ls_pcie_probe.str1.1
                0x00000000820838a7       0xb7 drivers/built-in.o
                                         0xd5 (size before relaxing)
 .rodata.mac_read_from_eeprom.str1.1
                0x000000008208395e       0x8d board/freescale/common/built-in.o
                                         0x9b (size before relaxing)
 .rodata.main_loop.str1.1
                0x00000000820839eb       0x11 common/built-in.o
 .rodata.match.str1.1
                0x00000000820839fc       0x18 lib/built-in.o
 .rodata.match_entry.str1.1
                0x0000000082083a14       0x1b lib/built-in.o
 .rodata.match_string.str1.1
                0x0000000082083a14       0x2c lib/built-in.o
 .rodata.mc34vr500_get_sw_volt.str1.1
                0x0000000082083a40       0x62 board/freescale/common/built-in.o
 .rodata.mdio_list_devices.str1.1
                0x0000000082083aa2       0x17 common/built-in.o
                                         0x19 (size before relaxing)
 .rodata.mdio_phydev_for_ethname.str1.1
                0x0000000082083ab9       0x1c common/built-in.o
 .rodata.mdio_register.str1.1
                0x0000000082083ad5       0x2c common/built-in.o
 .rodata.memac_mdio_read.str1.1
                0x0000000082083b01        0xd drivers/net/fm/built-in.o
 .rodata.menu_get_choice.str1.1
                0x0000000082083b0e       0x1d common/built-in.o
                                         0x2a (size before relaxing)
 .rodata.miiphy_duplex.str1.1
                0x0000000082083b2b       0x5a common/built-in.o
                                         0x68 (size before relaxing)
 .rodata.miiphy_get_dev_by_name.str1.1
                0x0000000082083b85       0x13 common/built-in.o
 .rodata.miiphy_is_1000base_x.str1.1
                0x0000000082083b98       0x39 common/built-in.o
 .rodata.miiphy_listdev.str1.1
                0x0000000082083bd1       0x2a common/built-in.o
 .rodata.miiphy_set_current_dev.str1.1
                0x0000000082083bfb       0x14 common/built-in.o
 .rodata.miiphy_speed.str1.1
                0x0000000082083c0f       0x5b common/built-in.o
 .rodata.mmc_berase.str1.1
                0x0000000082083c6a       0x6f drivers/built-in.o
 .rodata.mmc_bind.str1.1
                0x0000000082083cd9        0x8 drivers/built-in.o
                                          0xc (size before relaxing)
 .rodata.mmc_bread.str1.1
                0x0000000082083ce1       0x47 drivers/built-in.o
 .rodata.mmc_bwrite.str1.1
                0x0000000082083d28       0x12 drivers/built-in.o
                                         0x59 (size before relaxing)
 .rodata.mmc_get_env_addr.str1.1
                0x0000000082083d3a       0x2f env/built-in.o
                                         0x35 (size before relaxing)
 .rodata.mmc_get_op_cond.str1.1
                0x0000000082083d69       0x29 drivers/built-in.o
 .rodata.mmc_hwpart_config.str1.1
                0x0000000082083d92      0x19f drivers/built-in.o
 .rodata.mmc_init.str1.1
                0x0000000082083f31       0x67 drivers/built-in.o
                                         0x6d (size before relaxing)
 .rodata.mmc_initialize.str1.1
                0x0000000082083f98       0x17 drivers/built-in.o
 .rodata.mmc_mode_name.str1.1
                0x0000000082083faf        0xd drivers/built-in.o
 .rodata.mmc_send_status.str1.1
                0x0000000082083fbc       0x32 drivers/built-in.o
 .rodata.mmc_start_init.str1.1
                0x0000000082083fee       0x16 drivers/built-in.o
 .rodata.mod_i2c_mem.isra.3.str1.1
                0x0000000082084004       0x28 cmd/built-in.o
 .rodata.mod_mem.isra.0.str1.1
                0x000000008208402c        0xf cmd/built-in.o
                                         0x26 (size before relaxing)
 .rodata.mtd_arg_off.str1.1
                0x000000008208403b       0x38 drivers/mtd/built-in.o
 .rodata.mtd_arg_off_size.str1.1
                0x0000000082084073       0x33 drivers/mtd/built-in.o
                                         0x71 (size before relaxing)
 .rodata.multipliers
                0x00000000820840a6       0x10 drivers/built-in.o
 .rodata.mxc_get_clock.str1.1
                0x00000000820840b6       0x13 arch/arm/cpu/armv8/built-in.o
 .rodata.name.9350
                0x00000000820840c9        0xa drivers/power/pmic/built-in.o
 .rodata.names.8639
                0x00000000820840d3        0x6 lib/built-in.o
 .rodata.nand_default_bbt.str1.1
                0x00000000820840d9       0x38 drivers/mtd/nand/raw/built-in.o
 .rodata.nand_ecc_precalc_table
                0x0000000082084111      0x100 drivers/mtd/nand/raw/built-in.o
 .rodata.nand_erase_opts.str1.1
                0x0000000082084211      0x136 drivers/mtd/nand/raw/built-in.o
                                        0x138 (size before relaxing)
 .rodata.nand_fill_oob.str1.1
                0x0000000082084347       0x19 drivers/mtd/nand/raw/built-in.o
 .rodata.nand_get_flash_type.str1.1
                0x0000000082084347       0x84 drivers/mtd/nand/raw/built-in.o
 .rodata.nand_print_and_set_info.constprop.0.str1.1
                0x00000000820843cb       0xc8 cmd/built-in.o
                                         0xd4 (size before relaxing)
 .rodata.nand_read_skip_bad.str1.1
                0x0000000082084493       0xc2 drivers/mtd/nand/raw/built-in.o
 .rodata.nand_register.str1.1
                0x0000000082084555        0x7 drivers/mtd/nand/raw/built-in.o
 .rodata.nand_reset.str1.1
                0x000000008208455c       0x44 drivers/mtd/nand/raw/built-in.o
 .rodata.nand_scan_ident.str1.1
                0x00000000820845a0       0xc7 drivers/mtd/nand/raw/built-in.o
                                         0xcc (size before relaxing)
 .rodata.nand_scan_tail.str1.1
                0x0000000082084667       0x2d drivers/mtd/nand/raw/built-in.o
 .rodata.nand_wait.str1.1
                0x0000000082084694       0x69 drivers/mtd/nand/raw/built-in.o
 .rodata.nand_write_skip_bad.str1.1
                0x00000000820846fd       0xc0 drivers/mtd/nand/raw/built-in.o
 .rodata.net_auto_load.str1.1
                0x00000000820847bd       0x45 net/built-in.o
 .rodata.net_bcast_ethaddr
                0x0000000082084802        0x6 net/built-in.o
                0x0000000082084802                net_bcast_ethaddr
 .rodata.net_check_prereq.str1.1
                0x0000000082084808       0xbc net/built-in.o
 .rodata.net_loop.str1.1
                0x00000000820848c4       0x29 net/built-in.o
                                         0x3b (size before relaxing)
 .rodata.net_process_received_packet.str1.1
                0x00000000820848ed       0x1d net/built-in.o
 .rodata.net_start_again.str1.1
                0x000000008208490a        0xe net/built-in.o
                                         0x15 (size before relaxing)
 .rodata.netboot_common.str1.1
                0x0000000082084918       0x16 cmd/built-in.o
                                         0x53 (size before relaxing)
 .rodata.nfs_handler.str1.1
                0x000000008208492e       0x56 net/built-in.o
 .rodata.nfs_lookup_reply.str1.1
                0x0000000082084984       0x25 net/built-in.o
                                         0x27 (size before relaxing)
 .rodata.nfs_read_reply.isra.0.str1.1
                0x00000000820849a9        0x4 net/built-in.o
 .rodata.nfs_readlink_reply.str1.1
                0x00000000820849ad        0x2 net/built-in.o
 .rodata.nfs_start.str1.1
                0x00000000820849ad       0xed net/built-in.o
                                        0x105 (size before relaxing)
 .rodata.nfs_timeout_handler.str1.1
                0x0000000082084a9a       0x2a net/built-in.o
 .rodata.ofnode_get_addr_index.str1.1
                0x0000000082084ac4        0x4 drivers/built-in.o
 .rodata.ofnode_read_pci_vendev.str1.1
                0x0000000082084ac4        0xd drivers/built-in.o
                                         0x1c (size before relaxing)
 .rodata.ofnode_read_resource_byname.str1.1
                0x0000000082084ad1        0xa drivers/built-in.o
 .rodata.on_baudrate.str1.1
                0x0000000082084adb       0x42 drivers/serial/built-in.o
                                         0x74 (size before relaxing)
 .rodata.on_callbacks.str1.1
                0x0000000082084b1d      0x105 env/built-in.o
 .rodata.on_console.str1.1
                0x0000000082084c22       0x10 common/built-in.o
                                         0x27 (size before relaxing)
 .rodata.on_ethaddr.str1.1
                0x0000000082084c22        0x4 net/built-in.o
 .rodata.on_flags.str1.1
                0x0000000082084c22       0x50 env/built-in.o
 .rodata.parse_argv.str1.1
                0x0000000082084c72        0x6 cmd/built-in.o
                                          0xd (size before relaxing)
 .rodata.parse_attr.part.0.str1.1
                0x0000000082084c78       0x17 lib/built-in.o
                                         0x23 (size before relaxing)
 .rodata.parse_integer.str1.1
                0x0000000082084c8f       0x17 cmd/built-in.o
 .rodata.parse_pxefile_top.str1.1
                0x0000000082084ca6       0x89 cmd/built-in.o
                                         0x8b (size before relaxing)
 .rodata.parse_sliteral.str1.1
                0x0000000082084d2f       0x1f cmd/built-in.o
 .rodata.parse_stream_outer.str1.1
                0x0000000082084d4e       0x4d common/built-in.o
 .rodata.parse_string_outer.str1.1
                0x0000000082084d9b        0x2 common/built-in.o
 .rodata.part_get_info_efi.str1.1
                0x0000000082084d9b        0xa disk/built-in.o
 .rodata.part_get_info_extended.str1.1
                0x0000000082084d9b        0xa disk/built-in.o
                                         0x11 (size before relaxing)
 .rodata.part_get_info_iso_verb.str1.1
                0x0000000082084da5      0x1bf disk/built-in.o
                                        0x1c6 (size before relaxing)
 .rodata.part_get_info_whole_disk.str1.1
                0x0000000082084f64        0xb disk/built-in.o
                                         0x12 (size before relaxing)
 .rodata.part_print.str1.1
                0x0000000082084f6f       0x8e disk/built-in.o
                                         0x97 (size before relaxing)
 .rodata.part_print_dos.str1.1
                0x0000000082084ffd       0x2a disk/built-in.o
 .rodata.part_print_efi.str1.1
                0x0000000082085027       0xf9 disk/built-in.o
 .rodata.part_print_iso.str1.1
                0x0000000082085120       0x68 disk/built-in.o
 .rodata.part_set_generic_name.str1.1
                0x0000000082085188        0xa disk/built-in.o
 .rodata.pci_bar_show.str1.1
                0x0000000082085192       0xd3 cmd/built-in.o
 .rodata.pci_bind_bus_devices.str1.1
                0x0000000082085265       0x4f drivers/built-in.o
                                         0x53 (size before relaxing)
 .rodata.pci_cfg_modify.isra.0.str1.1
                0x00000000820852b4        0x7 cmd/built-in.o
                                         0x12 (size before relaxing)
 .rodata.pci_class_str.str1.1
                0x00000000820852bb      0x150 drivers/built-in.o
                                        0x154 (size before relaxing)
 .rodata.pci_header_show.str1.1
                0x000000008208540b       0x3d cmd/built-in.o
 .rodata.pci_hose_bus_to_phys.str1.1
                0x0000000082085448       0x54 drivers/built-in.o
 .rodata.pci_hose_phys_to_bus.str1.1
                0x000000008208549c       0x54 drivers/built-in.o
 .rodata.pci_show_regs.str1.1
                0x00000000820854f0       0x11 cmd/built-in.o
                                         0x12 (size before relaxing)
 .rodata.pci_uclass_pre_probe.str1.1
                0x0000000082085501        0x7 drivers/built-in.o
 .rodata.pciinfo_header.str1.1
                0x0000000082085501       0x9e cmd/built-in.o
 .rodata.phy_connect.str1.1
                0x000000008208559f       0x23 drivers/net/phy/built-in.o
 .rodata.phy_connect_dev.str1.1
                0x00000000820855c2       0x2f drivers/net/phy/built-in.o
 .rodata.phy_reset.str1.1
                0x00000000820855f1       0x15 drivers/net/phy/built-in.o
 .rodata.ping_start.str1.1
                0x0000000082085606       0x11 net/built-in.o
 .rodata.pmic_alloc.str1.1
                0x0000000082085606       0x29 drivers/power/built-in.o
 .rodata.pmic_probe.str1.1
                0x000000008208562f       0x14 drivers/power/built-in.o
 .rodata.pmic_reg_write.str1.1
                0x0000000082085643       0x17 drivers/power/built-in.o
 .rodata.populate_memctl_options.str1.1
                0x000000008208565a      0x210 drivers/ddr/fsl/built-in.o
                                        0x22e (size before relaxing)
 .rodata.power_mc34vr500_init.str1.1
                0x000000008208586a       0x1d drivers/power/pmic/built-in.o
 .rodata.prepare_ring.str1.1
                0x0000000082085887       0xa0 drivers/usb/host/built-in.o
 .rodata.print_buffer.str1.1
                0x0000000082085927        0x8 lib/built-in.o
                                         0x19 (size before relaxing)
 .rodata.print_cpuinfo.str1.1
                0x000000008208592f       0xc6 arch/arm/cpu/armv8/built-in.o
                                         0xd5 (size before relaxing)
 .rodata.print_data.str1.1
                0x00000000820859f5       0x27 cmd/built-in.o
                                         0x32 (size before relaxing)
 .rodata.print_ddr_info.str1.1
                0x0000000082085a1c       0xa9 drivers/ddr/fsl/built-in.o
                                         0xc8 (size before relaxing)
 .rodata.print_freq.str1.1
                0x0000000082085ac5       0x1b lib/built-in.o
 .rodata.print_hex_dump.str1.1
                0x0000000082085ae0       0x16 lib/built-in.o
                                         0x1c (size before relaxing)
 .rodata.print_mmc_devices.str1.1
                0x0000000082085af6       0x12 drivers/built-in.o
                                         0x1c (size before relaxing)
 .rodata.print_num.str1.1
                0x0000000082085b08       0x10 cmd/built-in.o
 .rodata.print_partition_extended.str1.1
                0x0000000082085b18       0x83 disk/built-in.o
                                         0x84 (size before relaxing)
 .rodata.print_size.str1.1
                0x0000000082085b9b       0x15 lib/built-in.o
 .rodata.quantifier.str1.1
                0x0000000082085bb0       0x17 lib/built-in.o
 .rodata.read_allocated_block.str1.1
                0x0000000082085bc7      0x240 fs/built-in.o
 .rodata.read_bootsectandvi.str1.1
                0x0000000082085e07       0x1b fs/built-in.o
 .rodata.read_sr.str1.1
                0x0000000082085e22       0x15 drivers/mtd/spi/built-in.o
 .rodata.realloc.str1.1
                0x0000000082085e37       0x25 common/built-in.o
 .rodata.record_transfer_result.str1.1
                0x0000000082085e5c       0x4d drivers/usb/host/built-in.o
                                         0x66 (size before relaxing)
 .rodata.regex_callback.str1.1
                0x0000000082085ea9        0x5 env/built-in.o
                                         0x20 (size before relaxing)
 .rodata.regex_sub.part.1.str1.1
                0x0000000082085eae       0xbd cmd/built-in.o
 .rodata.report_ccb_status.str1.1
                0x0000000082085f6b        0x1 drivers/built-in.o
 .rodata.report_deco_status.str1.1
                0x0000000082085f6b        0x5 drivers/built-in.o
 .rodata.run_list_real.str1.1
                0x0000000082085f6b       0x45 common/built-in.o
                                         0x4b (size before relaxing)
 .rodata.sata_ceva_ofdata_to_platdata.str1.1
                0x0000000082085fb0       0x16 drivers/built-in.o
 .rodata.scsi_scan.str1.1
                0x0000000082085fc6       0x1d drivers/built-in.o
 .rodata.scsi_scan_dev.str1.1
                0x0000000082085fe3       0x13 drivers/built-in.o
                                         0x21 (size before relaxing)
 .rodata.sec_firmware_get_random.str1.1
                0x0000000082085ff6       0x2b arch/arm/cpu/armv8/built-in.o
 .rodata.sec_init_idx.str1.1
                0x0000000082086021       0xcc drivers/built-in.o
 .rodata.select_i2c_ch_pca9547.str1.1
                0x00000000820860ed       0x26 board/freescale/ls1046afrwy/built-in.o
 .rodata.serdes_init.str1.1
                0x0000000082086113       0x49 arch/arm/cpu/armv8/built-in.o
 .rodata.set_default_env.str1.1
                0x000000008208615c       0x2e env/built-in.o
                                         0x5f (size before relaxing)
 .rodata.set_dev.str1.1
                0x000000008208618a        0xe cmd/built-in.o
                                         0x29 (size before relaxing)
 .rodata.set_gpt_info.isra.0.constprop.1.str1.1
                0x0000000082086198       0x8e cmd/built-in.o
                                         0xb0 (size before relaxing)
 .rodata.set_local_var.str1.1
                0x0000000082086226       0x59 common/built-in.o
 .rodata.set_working_fdt_addr.str1.1
                0x000000008208627f        0x8 cmd/built-in.o
 .rodata.setup_chip_volt.str1.1
                0x0000000082086287       0x44 arch/arm/cpu/armv8/built-in.o
 .rodata.setup_flash_device.str1.1
                0x00000000820862cb       0x20 env/built-in.o
 .rodata.setup_pgtables.str1.1
                0x00000000820862eb       0x2d arch/arm/cpu/armv8/built-in.o
 .rodata.setup_serdes_volt.str1.1
                0x0000000082086318       0x18 arch/arm/cpu/armv8/built-in.o
 .rodata.sha1_padding
                0x0000000082086330       0x40 lib/built-in.o
 .rodata.show_board_info.str1.1
                0x0000000082086370       0x11 common/built-in.o
 .rodata.show_dram_config.str1.1
                0x0000000082086381        0x1 common/built-in.o
 .rodata.show_regs.str1.1
                0x0000000082086381       0x57 arch/arm/lib/built-in.o
                                         0x59 (size before relaxing)
 .rodata.simple_bus_post_bind.str1.1
                0x00000000820863d8        0x7 drivers/built-in.o
 .rodata.smbios_write_type0.str1.1
                0x00000000820863d8       0x19 lib/built-in.o
                                         0x20 (size before relaxing)
 .rodata.smbios_write_type1.str1.1
                0x00000000820863f1        0x8 lib/built-in.o
 .rodata.smbios_write_type2.str1.1
                0x00000000820863f1        0xc lib/built-in.o
 .rodata.smbios_write_type3.str1.1
                0x00000000820863fd        0xa lib/built-in.o
 .rodata.smbios_write_type4.str1.1
                0x0000000082086407        0x8 lib/built-in.o
 .rodata.source.str1.1
                0x0000000082086407       0xff cmd/built-in.o
                                        0x124 (size before relaxing)
 .rodata.spi_flash_probe_bus_cs.str1.1
                0x0000000082086506       0x1e drivers/mtd/spi/built-in.o
 .rodata.spi_flash_std_erase.str1.1
                0x0000000082086524       0x34 drivers/mtd/spi/built-in.o
 .rodata.spi_flash_std_probe.str1.1
                0x0000000082086558       0x1c drivers/mtd/spi/built-in.o
 .rodata.spi_get_bus_and_cs.str1.1
                0x0000000082086574       0x64 drivers/spi/built-in.o
 .rodata.spi_nor_3to4_erase.10703
                0x00000000820865d8        0x6 drivers/mtd/spi/built-in.o
 .rodata.spi_nor_3to4_program.10699
                0x00000000820865de        0x6 drivers/mtd/spi/built-in.o
 .rodata.spi_nor_3to4_read.10695
                0x00000000820865e4       0x12 drivers/mtd/spi/built-in.o
 .rodata.spi_nor_scan.str1.1
                0x00000000820865f6       0xa4 drivers/mtd/spi/built-in.o
                                         0xa7 (size before relaxing)
 .rodata.spi_nor_wait_till_ready_with_timeout.constprop.6.str1.1
                0x000000008208669a       0x1b drivers/mtd/spi/built-in.o
 .rodata.spi_post_probe.str1.1
                0x00000000820866b5       0x12 drivers/spi/built-in.o
 .rodata.spi_set_speed_mode.str1.1
                0x00000000820866c7       0x35 drivers/spi/built-in.o
 .rodata.spi_slave_ofdata_to_platdata.str1.1
                0x00000000820866fc       0xa0 drivers/spi/built-in.o
                                         0xa4 (size before relaxing)
 .rodata.split_block.str1.1
                0x000000008208679c       0x74 arch/arm/cpu/armv8/built-in.o
 .rodata.stdio_add_devices.str1.1
                0x0000000082086810        0x7 common/built-in.o
 .rodata.stdio_print_current_devices.str1.1
                0x0000000082086810       0x70 common/built-in.o
                                         0x74 (size before relaxing)
 .rodata.stm_lock.str1.1
                0x0000000082086880       0x4e drivers/mtd/spi/built-in.o
 .rodata.store_char_in_data.str1.1
                0x00000000820868ce       0x1f lib/built-in.o
 .rodata.str1.1
                0x00000000820868ed       0xd0 arch/arm/cpu/armv8/built-in.o
                                        0x108 (size before relaxing)
 .rodata.str1.1
                0x00000000820869bd       0x23 board/freescale/ls1046afrwy/built-in.o
                                         0x24 (size before relaxing)
 .rodata.str1.1
                0x00000000820869e0     0x47c6 cmd/built-in.o
                                       0x4b82 (size before relaxing)
 .rodata.str1.1
                0x000000008208b1a6      0x8b8 common/built-in.o
                                        0x942 (size before relaxing)
 .rodata.str1.1
                0x000000008208ba5e       0x1f disk/built-in.o
                                         0x22 (size before relaxing)
 .rodata.str1.1
                0x000000008208ba7d      0x99c drivers/built-in.o
                                        0x9f4 (size before relaxing)
 .rodata.str1.1
                0x000000008208c419       0x14 drivers/i2c/built-in.o
 .rodata.str1.1
                0x000000008208c42d      0x653 drivers/mtd/nand/raw/built-in.o
 .rodata.str1.1
                0x000000008208ca80      0x12b drivers/mtd/spi/built-in.o
                                        0x139 (size before relaxing)
 .rodata.str1.1
                0x000000008208cbab       0x28 drivers/net/phy/built-in.o
                                         0xb6 (size before relaxing)
 .rodata.str1.1
                0x000000008208cbd3       0xf1 drivers/power/built-in.o
 .rodata.str1.1
                0x000000008208ccc4        0x9 drivers/serial/built-in.o
 .rodata.str1.1
                0x000000008208ccc4       0x63 drivers/spi/built-in.o
                                         0x67 (size before relaxing)
 .rodata.str1.1
                0x000000008208cd27       0x43 drivers/usb/common/built-in.o
                                         0x70 (size before relaxing)
 .rodata.str1.1
                0x000000008208cd6a       0x37 drivers/usb/host/built-in.o
                                         0x45 (size before relaxing)
 .rodata.str1.1
                0x000000008208cda1        0xa env/built-in.o
                                         0x1e (size before relaxing)
 .rodata.str1.1
                0x000000008208cdab       0x11 fs/built-in.o
                                         0x15 (size before relaxing)
 .rodata.str1.1
                0x000000008208cdbc      0x4a2 lib/built-in.o
                                        0x4b4 (size before relaxing)
 .rodata.str1.1
                0x000000008208d25e        0x6 net/built-in.o
                                         0x35 (size before relaxing)
 .rodata.string.str1.1
                0x000000008208d264        0x7 lib/built-in.o
 .rodata.strmhz.str1.1
                0x000000008208d26b        0x7 lib/built-in.o
                                          0xb (size before relaxing)
 .rodata.substitute.str1.1
                0x000000008208d272       0x28 cmd/built-in.o
 .rodata.swx_set_point_base
                0x000000008208d29a        0x4 board/freescale/common/built-in.o
 .rodata.swxvolt_addr
                0x000000008208d29e        0x4 board/freescale/common/built-in.o
 .rodata.syntax_err.str1.1
                0x000000008208d2a2        0xe common/built-in.o
 .rodata.tab_seq
                0x000000008208d2b0        0x9 common/built-in.o
 .rodata.test_block_type.str1.1
                0x000000008208d2b9        0xa disk/built-in.o
 .rodata.tftp_handler.str1.1
                0x000000008208d2c3       0x9a net/built-in.o
                                         0xa8 (size before relaxing)
 .rodata.tftp_send.str1.1
                0x000000008208d35d       0x36 net/built-in.o
                                         0x42 (size before relaxing)
 .rodata.tftp_start.str1.1
                0x000000008208d393       0xe8 net/built-in.o
                                        0x181 (size before relaxing)
 .rodata.tftp_timeout_handler.str1.1
                0x000000008208d47b       0x2a net/built-in.o
                                         0x2d (size before relaxing)
 .rodata.u_boot_hush_start.str1.1
                0x000000008208d4a5       0x12 common/built-in.o
 .rodata.uclass_resolve_seq.str1.1
                0x000000008208d4b7       0x27 drivers/built-in.o
 .rodata.us_direction
                0x000000008208d4de       0x20 common/built-in.o
 .rodata.usb_child_post_bind.str1.1
                0x000000008208d4fe       0x25 drivers/usb/host/built-in.o
 .rodata.usb_display_class_sub.str1.1
                0x000000008208d523       0xb6 cmd/built-in.o
                                         0xbc (size before relaxing)
 .rodata.usb_display_config.str1.1
                0x000000008208d5d9      0x10d cmd/built-in.o
                                        0x118 (size before relaxing)
 .rodata.usb_display_desc.str1.1
                0x000000008208d6e6       0xac cmd/built-in.o
                                         0xae (size before relaxing)
 .rodata.usb_display_string.str1.1
                0x000000008208d792        0xd cmd/built-in.o
 .rodata.usb_get_class_desc.str1.1
                0x000000008208d79f       0x64 cmd/built-in.o
                                         0x65 (size before relaxing)
 .rodata.usb_get_configuration_len.str1.1
                0x000000008208d803       0x58 common/built-in.o
 .rodata.usb_get_dr_mode.str1.1
                0x000000008208d85b       0x1f drivers/usb/common/built-in.o
 .rodata.usb_hub_configure.str1.1
                0x000000008208d87a       0x5f common/built-in.o
 .rodata.usb_hub_port_connect_change.str1.1
                0x000000008208d8d9       0x18 common/built-in.o
 .rodata.usb_init.str1.1
                0x000000008208d8f1       0x7e drivers/usb/host/built-in.o
 .rodata.usb_mass_storage_probe.str1.1
                0x000000008208d96f       0x10 common/built-in.o
                                         0x16 (size before relaxing)
 .rodata.usb_scan_bus.isra.3.str1.1
                0x000000008208d97f       0x4d drivers/usb/host/built-in.o
                                         0x5f (size before relaxing)
 .rodata.usb_scan_device.str1.1
                0x000000008208d9cc       0x2a drivers/usb/host/built-in.o
 .rodata.usb_select_config.str1.1
                0x000000008208d9f6      0x220 common/built-in.o
 .rodata.usb_set_interface.str1.1
                0x000000008208dc16       0x1f common/built-in.o
 .rodata.usb_setup_descriptor.str1.1
                0x000000008208dc35       0x1d common/built-in.o
 .rodata.usb_setup_device.str1.1
                0x000000008208dc52       0x68 common/built-in.o
 .rodata.usb_show_tree_graph.str1.1
                0x000000008208dcba       0x2b cmd/built-in.o
                                         0x3a (size before relaxing)
 .rodata.usb_stor_CBI_get_status.isra.2.str1.1
                0x000000008208dce5       0x1f common/built-in.o
 .rodata.usb_stor_CB_transport.str1.1
                0x000000008208dd04       0x6e common/built-in.o
 .rodata.usb_stor_get_info.str1.1
                0x000000008208dd72       0x5d common/built-in.o
 .rodata.usb_stor_info.str1.1
                0x000000008208ddcf       0x32 common/built-in.o
                                         0x40 (size before relaxing)
 .rodata.usb_stor_scan.str1.1
                0x000000008208de01       0x48 common/built-in.o
 .rodata.usb_storage_probe.str1.1
                0x000000008208de49       0x5c common/built-in.o
 .rodata.uuid_bin_to_str.str1.1
                0x000000008208dea5        0x5 lib/built-in.o
 .rodata.valid_elf_image.str1.1
                0x000000008208dea5       0x52 cmd/built-in.o
 .rodata.validate_gpt_entries.str1.1
                0x000000008208def7       0x40 disk/built-in.o
 .rodata.validate_gpt_header.str1.1
                0x000000008208df37       0xe1 disk/built-in.o
 .rodata.var_complete.str1.1
                0x000000008208e018        0x1 common/built-in.o
 .rodata.verify_bbt_descr.str1.1
                0x000000008208e018       0x50 drivers/mtd/nand/raw/built-in.o
                                         0x69 (size before relaxing)
 .rodata.version_string
                0x000000008208e068       0x34 cmd/built-in.o
                0x000000008208e068                version_string
 .rodata.wait_for_sr_state.str1.1
                0x000000008208e09c       0x4c drivers/i2c/built-in.o
 .rodata.wr_table.9556
                0x000000008208e0e8        0xf drivers/ddr/fsl/built-in.o
 .rodata.write_bbt.str1.1
                0x000000008208e0f7       0x28 drivers/mtd/nand/raw/built-in.o
 .rodata.write_gpt_table.str1.1
                0x000000008208e11f       0x55 disk/built-in.o
 .rodata.write_smbios_table.str1.1
                0x000000008208e174       0x38 lib/built-in.o
 .rodata.write_sr_and_check.str1.1
                0x000000008208e1ac       0x39 drivers/mtd/spi/built-in.o
 .rodata.wrrec_table.9382
                0x000000008208e1e5       0x18 drivers/ddr/fsl/built-in.o
 .rodata.xhci_alloc_device.str1.1
                0x000000008208e1fd       0x34 drivers/usb/host/built-in.o
 .rodata.xhci_alloc_virt_device.str1.1
                0x000000008208e231       0xa5 drivers/usb/host/built-in.o
 .rodata.xhci_configure_endpoints.str1.1
                0x000000008208e2d6       0x9c drivers/usb/host/built-in.o
                                         0xb5 (size before relaxing)
 .rodata.xhci_fsl_probe.str1.1
                0x000000008208e372       0x3c drivers/usb/host/built-in.o
 .rodata.xhci_mem_init.str1.1
                0x000000008208e3ae       0x19 drivers/usb/host/built-in.o
 .rodata.xhci_register.str1.1
                0x000000008208e3c7       0x44 drivers/usb/host/built-in.o
 .rodata.xhci_reset.str1.1
                0x000000008208e40b       0x28 drivers/usb/host/built-in.o
 .rodata.xhci_ring_free.str1.1
                0x000000008208e433       0x4c drivers/usb/host/built-in.o
                                         0x65 (size before relaxing)
 .rodata.xhci_submit_bulk_msg.str1.1
                0x000000008208e47f       0x19 drivers/usb/host/built-in.o
 .rodata.xhci_submit_control_msg.str1.1
                0x000000008208e498      0x18a drivers/usb/host/built-in.o
 .rodata.xhci_submit_int_msg.str1.1
                0x000000008208e622       0x1e drivers/usb/host/built-in.o
 .rodata.xhci_wait_for_event.str1.1
                0x000000008208e640       0x70 drivers/usb/host/built-in.o
 .rodata.xmalloc.str1.1
                0x000000008208e6b0       0x1e common/built-in.o
 .rodata.xyzModem_error.str1.1
                0x000000008208e6ce        0xe common/built-in.o
 .rodata.xyzModem_stream_close.str1.1
                0x000000008208e6dc       0x47 common/built-in.o
                                         0x4b (size before relaxing)
 .rodata.xyzModem_stream_open.str1.1
                0x000000008208e723        0x2 common/built-in.o

.hash           0x000000008208e728       0x18
 .hash          0x000000008208e728       0x18 arch/arm/cpu/armv8/start.o
                0x000000008208e740                . = ALIGN (0x8)

.data           0x000000008208e740     0xcd20
 *(.data*)
 .data.rel.ro   0x000000008208e740        0x0 arch/arm/cpu/armv8/start.o
 .data.cpu_type_list
                0x000000008208e740      0x258 arch/arm/cpu/armv8/built-in.o
 .data.early_map
                0x000000008208e998      0x100 arch/arm/cpu/armv8/built-in.o
 .data.final_map
                0x000000008208ea98      0x1e0 arch/arm/cpu/armv8/built-in.o
 .data.mem_map  0x000000008208ec78        0x8 arch/arm/cpu/armv8/built-in.o
                0x000000008208ec78                mem_map
 .data.serdes1_cfg_tbl
                0x000000008208ec80       0x68 arch/arm/cpu/armv8/built-in.o
 .data.serdes2_cfg_tbl
                0x000000008208ece8       0x48 arch/arm/cpu/armv8/built-in.o
 .data.fman_icid_tbl
                0x000000008208ed30       0xb0 arch/arm/cpu/armv8/built-in.o
                0x000000008208ed30                fman_icid_tbl
 .data.fman_icid_tbl_sz
                0x000000008208ede0        0x4 arch/arm/cpu/armv8/built-in.o
                0x000000008208ede0                fman_icid_tbl_sz
 *fill*         0x000000008208ede4        0x4 
 .data.icid_tbl
                0x000000008208ede8      0x300 arch/arm/cpu/armv8/built-in.o
                0x000000008208ede8                icid_tbl
 .data.icid_tbl_sz
                0x000000008208f0e8        0x4 arch/arm/cpu/armv8/built-in.o
                0x000000008208f0e8                icid_tbl_sz
 .data.qp_info  0x000000008208f0ec       0x50 arch/arm/cpu/armv8/built-in.o
                0x000000008208f0ec                qp_info
 *fill*         0x000000008208f13c        0x4 
 .data.ns_dev   0x000000008208f140      0x4d0 board/freescale/common/built-in.o
 .data.bootm_help_text
                0x000000008208f610      0x4cf cmd/built-in.o
 *fill*         0x000000008208fadf        0x1 
 .data.cmd_bootm_sub
                0x000000008208fae0      0x1f8 cmd/built-in.o
 .data.source_help_text
                0x000000008208fcd8       0xac cmd/built-in.o
 *fill*         0x000000008208fd84        0x4 
 .data.cmd_blkc_sub
                0x000000008208fd88       0x70 cmd/built-in.o
 .data.bootefi_help_text
                0x000000008208fdf8      0x188 cmd/built-in.o
 .data.booti_help_text
                0x000000008208ff80      0x1e1 cmd/built-in.o
 .data.fdt_help_text
                0x0000000082090161      0x6a6 cmd/built-in.o
 .data.root.8663
                0x0000000082090807        0x2 cmd/built-in.o
 .data.tabs.8748
                0x0000000082090809       0x21 cmd/built-in.o
 *fill*         0x000000008209082a        0x6 
 .data.cmd_i2c_sub
                0x0000000082090830      0x2d8 cmd/built-in.o
 .data.i2c_dp_last_length
                0x0000000082090b08        0x4 cmd/built-in.o
 .data.i2c_help_text
                0x0000000082090b0c      0x380 cmd/built-in.o
 .data.do_echo  0x0000000082090e8c        0x4 cmd/built-in.o
 .data.dp_last_length
                0x0000000082090e90        0x8 cmd/built-in.o
 .data.cmd_mmc  0x0000000082090e98      0x230 cmd/built-in.o
 .data.curr_device
                0x00000000820910c8        0x4 cmd/built-in.o
 .data.cpu_help_text
                0x00000000820910cc      0x117 cmd/built-in.o
 .data.nand_help_text
                0x00000000820911e3      0x3ee cmd/built-in.o
 .data.pci_help_text
                0x00000000820915d1      0x24f cmd/built-in.o
 .data.regs_bridge
                0x0000000082091820      0x150 cmd/built-in.o
 .data.regs_cardbus
                0x0000000082091970      0x190 cmd/built-in.o
 .data.regs_normal
                0x0000000082091b00       0xe0 cmd/built-in.o
 .data.regs_rest
                0x0000000082091be0       0x80 cmd/built-in.o
 .data.regs_start
                0x0000000082091c60       0x60 cmd/built-in.o
 .data.cmd_pxe_sub
                0x0000000082091cc0       0x70 cmd/built-in.o
 .data.pxe_default_paths
                0x0000000082091d30       0x20 cmd/built-in.o
                0x0000000082091d30                pxe_default_paths
 .data.usb_stor_curr_dev
                0x0000000082091d50        0x4 cmd/built-in.o
 .data.imgextract_help_text
                0x0000000082091d54       0xb2 cmd/built-in.o
 *fill*         0x0000000082091e06        0x2 
 .data.cmd_env_sub
                0x0000000082091e08      0x230 cmd/built-in.o
 .data.env_help_text
                0x0000000082092038      0x2d6 cmd/built-in.o
 *fill*         0x000000008209230e        0x2 
 .data.env_id   0x0000000082092310        0x4 cmd/built-in.o
 *fill*         0x0000000082092314        0x4 
 .data.hash_algo
                0x0000000082092318       0xe0 common/built-in.o
 .data.reserved_list
                0x00000000820923f8      0x108 common/built-in.o
 .data.init_sequence_r
                0x0000000082092500      0x110 common/built-in.o
 .data.of_busses
                0x0000000082092610       0x30 common/built-in.o
 .data.usb_scan_list
                0x0000000082092640       0x10 common/built-in.o
 .data.hist_cur
                0x0000000082092650        0x4 common/built-in.o
 *fill*         0x0000000082092654        0x4 
 .data.av_      0x0000000082092658      0x810 common/built-in.o
 .data.sbrk_base
                0x0000000082092e68        0x8 common/built-in.o
 .data.trim_threshold
                0x0000000082092e70        0x8 common/built-in.o
 .data.load_addr
                0x0000000082092e78        0x8 common/built-in.o
                0x0000000082092e78                load_addr
 .data.stdio_names
                0x0000000082092e80       0x18 common/built-in.o
                0x0000000082092e80                stdio_names
 .data.ls_pcie_list
                0x0000000082092e98       0x10 drivers/built-in.o
                0x0000000082092e98                ls_pcie_list
 .data.next_stream_id.9959
                0x0000000082092ea8        0x4 drivers/built-in.o
 *fill*         0x0000000082092eac        0x4 
 .data.scsi_ops
                0x0000000082092eb0       0x10 drivers/built-in.o
                0x0000000082092eb0                scsi_ops
 .data._stats   0x0000000082092ec0       0x14 drivers/built-in.o
 *fill*         0x0000000082092ed4        0x4 
 .data.block_cache
                0x0000000082092ed8       0x10 drivers/built-in.o
 .data.driver_hash
                0x0000000082092ee8       0xb0 drivers/built-in.o
 .data.ifc_cfg_default_boot
                0x0000000082092f98       0xe0 drivers/built-in.o
                0x0000000082092f98                ifc_cfg_default_boot
 .data.usdhc_imx7d_data
                0x0000000082093078        0x8 drivers/built-in.o
 .data.spd_i2c_addr
                0x0000000082093080        0x1 drivers/ddr/fsl/built-in.o
                0x0000000082093080                spd_i2c_addr
 *fill*         0x0000000082093081        0x7 
 .data.mxc_i2c_buses
                0x0000000082093088      0x1c0 drivers/i2c/built-in.o
 .data.nand_curr_device
                0x0000000082093248        0x4 drivers/mtd/nand/raw/built-in.o
                0x0000000082093248                nand_curr_device
 *fill*         0x000000008209324c        0x4 
 .data.bbt_main_descr
                0x0000000082093250       0x50 drivers/mtd/nand/raw/built-in.o
 .data.bbt_main_no_oob_descr
                0x00000000820932a0       0x28 drivers/mtd/nand/raw/built-in.o
 .data.bbt_mirror_descr
                0x00000000820932c8       0x50 drivers/mtd/nand/raw/built-in.o
 .data.bbt_mirror_no_oob_descr
                0x0000000082093318       0x28 drivers/mtd/nand/raw/built-in.o
 .data.bbt_pattern
                0x0000000082093340        0x8 drivers/mtd/nand/raw/built-in.o
 .data.mirror_pattern
                0x0000000082093348        0x8 drivers/mtd/nand/raw/built-in.o
 .data.scan_ff_pattern
                0x0000000082093350        0x2 drivers/mtd/nand/raw/built-in.o
 *fill*         0x0000000082093352        0x6 
 .data.nand_flash_ids
                0x0000000082093358     0x1050 drivers/mtd/nand/raw/built-in.o
                0x0000000082093358                nand_flash_ids
 .data.oob_2048_ecc4
                0x00000000820943a8      0xba8 drivers/mtd/nand/raw/built-in.o
 .data.oob_4096_ecc4
                0x0000000082094f50      0xba8 drivers/mtd/nand/raw/built-in.o
 .data.oob_4096_ecc8
                0x0000000082095af8      0xba8 drivers/mtd/nand/raw/built-in.o
 .data.oob_512_16bit_ecc4
                0x00000000820966a0      0xba8 drivers/mtd/nand/raw/built-in.o
 .data.oob_512_8bit_ecc4
                0x0000000082097248      0xba8 drivers/mtd/nand/raw/built-in.o
 .data.oob_8192_ecc4
                0x0000000082097df0      0xba8 drivers/mtd/nand/raw/built-in.o
 .data.oob_8192_ecc8
                0x0000000082098998      0xba8 drivers/mtd/nand/raw/built-in.o
 .data.e1000_hw_list
                0x0000000082099540       0x10 drivers/net/built-in.o
 .data.e1000_supported
                0x0000000082099550      0x600 drivers/net/built-in.o
 .data.fm_info  0x0000000082099b50      0x1e0 drivers/net/fm/built-in.o
                0x0000000082099b50                fm_info
 .data.port_to_devdisr
                0x0000000082099d30       0x30 drivers/net/fm/built-in.o
                0x0000000082099d30                port_to_devdisr
 .data.genphy_driver
                0x0000000082099d60       0x58 drivers/net/phy/built-in.o
 .data.phy_drivers
                0x0000000082099db8       0x10 drivers/net/phy/built-in.o
 .data.AR8021_driver
                0x0000000082099dc8       0x58 drivers/net/phy/built-in.o
 .data.AR8031_driver
                0x0000000082099e20       0x58 drivers/net/phy/built-in.o
 .data.AR8035_driver
                0x0000000082099e78       0x58 drivers/net/phy/built-in.o
 .data.pmic_list
                0x0000000082099ed0       0x10 drivers/power/built-in.o
 .data.eserial1_device
                0x0000000082099ee0       0x50 drivers/serial/built-in.o
                0x0000000082099ee0                eserial1_device
 .data.eserial2_device
                0x0000000082099f30       0x50 drivers/serial/built-in.o
                0x0000000082099f30                eserial2_device
 .data.eserial3_device
                0x0000000082099f80       0x50 drivers/serial/built-in.o
                0x0000000082099f80                eserial3_device
 .data.eserial4_device
                0x0000000082099fd0       0x50 drivers/serial/built-in.o
                0x0000000082099fd0                eserial4_device
 .data.descriptor
                0x000000008209a020       0x3f drivers/usb/host/built-in.o
 *fill*         0x000000008209a05f        0x1 
 .data.xhci_usb_ops
                0x000000008209a060       0x50 drivers/usb/host/built-in.o
                0x000000008209a060                xhci_usb_ops
 .data.env_htab
                0x000000008209a0b0       0x18 env/built-in.o
                0x000000008209a0b0                env_htab
 .data.first_call
                0x000000008209a0c8        0x8 env/built-in.o
 .data.fstypes  0x000000008209a0d0      0x180 fs/built-in.o
 .data.ext4fs_indir1_blkno
                0x000000008209a250        0x4 fs/built-in.o
                0x000000008209a250                ext4fs_indir1_blkno
 .data.ext4fs_indir2_blkno
                0x000000008209a254        0x4 fs/built-in.o
                0x000000008209a254                ext4fs_indir2_blkno
 .data.ext4fs_indir3_blkno
                0x000000008209a258        0x4 fs/built-in.o
                0x000000008209a258                ext4fs_indir3_blkno
 *fill*         0x000000008209a25c        0x4 
 .data.efi_boot_services
                0x000000008209a260      0x178 lib/built-in.o
 .data.efi_events
                0x000000008209a3d8       0x10 lib/built-in.o
                0x000000008209a3d8                efi_events
 .data.efi_obj_list
                0x000000008209a3e8       0x10 lib/built-in.o
                0x000000008209a3e8                efi_obj_list
 .data.efi_tpl  0x000000008209a3f8        0x8 lib/built-in.o
 .data.entry_count
                0x000000008209a400        0x4 lib/built-in.o
 *fill*         0x000000008209a404        0x4 
 .data.cin_notify_functions
                0x000000008209a408       0x10 lib/built-in.o
 .data.efi_con_in
                0x000000008209a418       0x18 lib/built-in.o
                0x000000008209a418                efi_con_in
 .data.efi_con_in_ex
                0x000000008209a430       0x30 lib/built-in.o
 .data.efi_con_mode
                0x000000008209a460       0x18 lib/built-in.o
 .data.efi_con_out
                0x000000008209a478       0x50 lib/built-in.o
                0x000000008209a478                efi_con_out
 .data.efi_cout_modes
                0x000000008209a4c8       0x48 lib/built-in.o
 .data.efi_mem  0x000000008209a510       0x10 lib/built-in.o
                0x000000008209a510                efi_mem
 .data.efi_obj_list_initialized
                0x000000008209a520        0x8 lib/built-in.o
 .data.capitalization_table
                0x000000008209a528      0xed0 lib/built-in.o
 .data.sha256_padding
                0x000000008209b3f8       0x40 lib/built-in.o
 .data.y        0x000000008209b438        0x4 lib/built-in.o
 .data.first_call.8812
                0x000000008209b43c        0x4 net/built-in.o
 .data.net_native_vlan
                0x000000008209b440        0x2 net/built-in.o
                0x000000008209b440                net_native_vlan
 .data.net_our_vlan
                0x000000008209b442        0x2 net/built-in.o
                0x000000008209b442                net_our_vlan
 .data.nfs_offset
                0x000000008209b444        0x4 net/built-in.o
 .data.supported_nfs_versions
                0x000000008209b448        0x1 net/built-in.o
 *fill*         0x000000008209b449        0x1 
 .data.tftp_block_size
                0x000000008209b44a        0x2 net/built-in.o
 .data.tftp_block_size_option
                0x000000008209b44c        0x2 net/built-in.o
 *fill*         0x000000008209b44e        0x2 
 .data.tftp_timeout_count_max
                0x000000008209b450        0x4 net/built-in.o
                0x000000008209b450                tftp_timeout_count_max
 .data.timeout_count_max
                0x000000008209b454        0x4 net/built-in.o
 .data.timeout_ms
                0x000000008209b458        0x8 net/built-in.o

.got            0x000000008209b460        0x8
 .got           0x000000008209b460        0x8 arch/arm/cpu/armv8/start.o
                0x000000008209b460                _GLOBAL_OFFSET_TABLE_

.got.plt        0x000000008209b468       0x18
 .got.plt       0x000000008209b468       0x18 arch/arm/cpu/armv8/start.o
                0x000000008209b480                . = ALIGN (0x8)
                0x000000008209b480                . = .
                0x000000008209b480                . = ALIGN (0x8)

.u_boot_list    0x000000008209b480     0x2a98
 *(SORT_BY_NAME(.u_boot_list*))
 .u_boot_list_2_cmd_1
                0x000000008209b480        0x0 cmd/built-in.o
 .u_boot_list_2_cmd_1
                0x000000008209b480        0x0 common/built-in.o
 .u_boot_list_2_cmd_2_base
                0x000000008209b480       0x38 cmd/built-in.o
                0x000000008209b480                _u_boot_list_2_cmd_2_base
 .u_boot_list_2_cmd_2_bdinfo
                0x000000008209b4b8       0x38 cmd/built-in.o
                0x000000008209b4b8                _u_boot_list_2_cmd_2_bdinfo
 .u_boot_list_2_cmd_2_blkcache
                0x000000008209b4f0       0x38 cmd/built-in.o
                0x000000008209b4f0                _u_boot_list_2_cmd_2_blkcache
 .u_boot_list_2_cmd_2_boot
                0x000000008209b528       0x38 cmd/built-in.o
                0x000000008209b528                _u_boot_list_2_cmd_2_boot
 .u_boot_list_2_cmd_2_bootd
                0x000000008209b560       0x38 cmd/built-in.o
                0x000000008209b560                _u_boot_list_2_cmd_2_bootd
 .u_boot_list_2_cmd_2_bootefi
                0x000000008209b598       0x38 cmd/built-in.o
                0x000000008209b598                _u_boot_list_2_cmd_2_bootefi
 .u_boot_list_2_cmd_2_bootelf
                0x000000008209b5d0       0x38 cmd/built-in.o
                0x000000008209b5d0                _u_boot_list_2_cmd_2_bootelf
 .u_boot_list_2_cmd_2_booti
                0x000000008209b608       0x38 cmd/built-in.o
                0x000000008209b608                _u_boot_list_2_cmd_2_booti
 .u_boot_list_2_cmd_2_bootm
                0x000000008209b640       0x38 cmd/built-in.o
                0x000000008209b640                _u_boot_list_2_cmd_2_bootm
 .u_boot_list_2_cmd_2_bootp
                0x000000008209b678       0x38 cmd/built-in.o
                0x000000008209b678                _u_boot_list_2_cmd_2_bootp
 .u_boot_list_2_cmd_2_bootvx
                0x000000008209b6b0       0x38 cmd/built-in.o
                0x000000008209b6b0                _u_boot_list_2_cmd_2_bootvx
 .u_boot_list_2_cmd_2_cmp
                0x000000008209b6e8       0x38 cmd/built-in.o
                0x000000008209b6e8                _u_boot_list_2_cmd_2_cmp
 .u_boot_list_2_cmd_2_coninfo
                0x000000008209b720       0x38 cmd/built-in.o
                0x000000008209b720                _u_boot_list_2_cmd_2_coninfo
 .u_boot_list_2_cmd_2_cp
                0x000000008209b758       0x38 cmd/built-in.o
                0x000000008209b758                _u_boot_list_2_cmd_2_cp
 .u_boot_list_2_cmd_2_cpu
                0x000000008209b790       0x38 cmd/built-in.o
                0x000000008209b790                _u_boot_list_2_cmd_2_cpu
 .u_boot_list_2_cmd_2_crc32
                0x000000008209b7c8       0x38 cmd/built-in.o
                0x000000008209b7c8                _u_boot_list_2_cmd_2_crc32
 .u_boot_list_2_cmd_2_dcache
                0x000000008209b800       0x38 cmd/built-in.o
                0x000000008209b800                _u_boot_list_2_cmd_2_dcache
 .u_boot_list_2_cmd_2_dhcp
                0x000000008209b838       0x38 cmd/built-in.o
                0x000000008209b838                _u_boot_list_2_cmd_2_dhcp
 .u_boot_list_2_cmd_2_echo
                0x000000008209b870       0x38 cmd/built-in.o
                0x000000008209b870                _u_boot_list_2_cmd_2_echo
 .u_boot_list_2_cmd_2_editenv
                0x000000008209b8a8       0x38 cmd/built-in.o
                0x000000008209b8a8                _u_boot_list_2_cmd_2_editenv
 .u_boot_list_2_cmd_2_env
                0x000000008209b8e0       0x38 cmd/built-in.o
                0x000000008209b8e0                _u_boot_list_2_cmd_2_env
 .u_boot_list_2_cmd_2_erase
                0x000000008209b918       0x38 cmd/built-in.o
                0x000000008209b918                _u_boot_list_2_cmd_2_erase
 .u_boot_list_2_cmd_2_exit
                0x000000008209b950       0x38 cmd/built-in.o
                0x000000008209b950                _u_boot_list_2_cmd_2_exit
 .u_boot_list_2_cmd_2_ext2load
                0x000000008209b988       0x38 cmd/built-in.o
                0x000000008209b988                _u_boot_list_2_cmd_2_ext2load
 .u_boot_list_2_cmd_2_ext2ls
                0x000000008209b9c0       0x38 cmd/built-in.o
                0x000000008209b9c0                _u_boot_list_2_cmd_2_ext2ls
 .u_boot_list_2_cmd_2_ext4load
                0x000000008209b9f8       0x38 cmd/built-in.o
                0x000000008209b9f8                _u_boot_list_2_cmd_2_ext4load
 .u_boot_list_2_cmd_2_ext4ls
                0x000000008209ba30       0x38 cmd/built-in.o
                0x000000008209ba30                _u_boot_list_2_cmd_2_ext4ls
 .u_boot_list_2_cmd_2_ext4size
                0x000000008209ba68       0x38 cmd/built-in.o
                0x000000008209ba68                _u_boot_list_2_cmd_2_ext4size
 .u_boot_list_2_cmd_2_false
                0x000000008209baa0       0x38 cmd/built-in.o
                0x000000008209baa0                _u_boot_list_2_cmd_2_false
 .u_boot_list_2_cmd_2_fatinfo
                0x000000008209bad8       0x38 cmd/built-in.o
                0x000000008209bad8                _u_boot_list_2_cmd_2_fatinfo
 .u_boot_list_2_cmd_2_fatload
                0x000000008209bb10       0x38 cmd/built-in.o
                0x000000008209bb10                _u_boot_list_2_cmd_2_fatload
 .u_boot_list_2_cmd_2_fatls
                0x000000008209bb48       0x38 cmd/built-in.o
                0x000000008209bb48                _u_boot_list_2_cmd_2_fatls
 .u_boot_list_2_cmd_2_fatsize
                0x000000008209bb80       0x38 cmd/built-in.o
                0x000000008209bb80                _u_boot_list_2_cmd_2_fatsize
 .u_boot_list_2_cmd_2_fdt
                0x000000008209bbb8       0x38 cmd/built-in.o
                0x000000008209bbb8                _u_boot_list_2_cmd_2_fdt
 .u_boot_list_2_cmd_2_flinfo
                0x000000008209bbf0       0x38 cmd/built-in.o
                0x000000008209bbf0                _u_boot_list_2_cmd_2_flinfo
 .u_boot_list_2_cmd_2_fstype
                0x000000008209bc28       0x38 cmd/built-in.o
                0x000000008209bc28                _u_boot_list_2_cmd_2_fstype
 .u_boot_list_2_cmd_2_go
                0x000000008209bc60       0x38 cmd/built-in.o
                0x000000008209bc60                _u_boot_list_2_cmd_2_go
 .u_boot_list_2_cmd_2_gpt
                0x000000008209bc98       0x38 cmd/built-in.o
                0x000000008209bc98                _u_boot_list_2_cmd_2_gpt
 .u_boot_list_2_cmd_2_gzwrite
                0x000000008209bcd0       0x38 cmd/built-in.o
                0x000000008209bcd0                _u_boot_list_2_cmd_2_gzwrite
 .u_boot_list_2_cmd_2_hash
                0x000000008209bd08       0x38 cmd/built-in.o
                0x000000008209bd08                _u_boot_list_2_cmd_2_hash
 .u_boot_list_2_cmd_2_help
                0x000000008209bd40       0x38 cmd/built-in.o
                0x000000008209bd40                _u_boot_list_2_cmd_2_help
 .u_boot_list_2_cmd_2_i2c
                0x000000008209bd78       0x38 cmd/built-in.o
                0x000000008209bd78                _u_boot_list_2_cmd_2_i2c
 .u_boot_list_2_cmd_2_icache
                0x000000008209bdb0       0x38 cmd/built-in.o
                0x000000008209bdb0                _u_boot_list_2_cmd_2_icache
 .u_boot_list_2_cmd_2_iminfo
                0x000000008209bde8       0x38 cmd/built-in.o
                0x000000008209bde8                _u_boot_list_2_cmd_2_iminfo
 .u_boot_list_2_cmd_2_imxtract
                0x000000008209be20       0x38 cmd/built-in.o
                0x000000008209be20                _u_boot_list_2_cmd_2_imxtract
 .u_boot_list_2_cmd_2_itest
                0x000000008209be58       0x38 cmd/built-in.o
                0x000000008209be58                _u_boot_list_2_cmd_2_itest
 .u_boot_list_2_cmd_2_load
                0x000000008209be90       0x38 cmd/built-in.o
                0x000000008209be90                _u_boot_list_2_cmd_2_load
 .u_boot_list_2_cmd_2_loadb
                0x000000008209bec8       0x38 cmd/built-in.o
                0x000000008209bec8                _u_boot_list_2_cmd_2_loadb
 .u_boot_list_2_cmd_2_loads
                0x000000008209bf00       0x38 cmd/built-in.o
                0x000000008209bf00                _u_boot_list_2_cmd_2_loads
 .u_boot_list_2_cmd_2_loadx
                0x000000008209bf38       0x38 cmd/built-in.o
                0x000000008209bf38                _u_boot_list_2_cmd_2_loadx
 .u_boot_list_2_cmd_2_loady
                0x000000008209bf70       0x38 cmd/built-in.o
                0x000000008209bf70                _u_boot_list_2_cmd_2_loady
 .u_boot_list_2_cmd_2_loop
                0x000000008209bfa8       0x38 cmd/built-in.o
                0x000000008209bfa8                _u_boot_list_2_cmd_2_loop
 .u_boot_list_2_cmd_2_ls
                0x000000008209bfe0       0x38 cmd/built-in.o
                0x000000008209bfe0                _u_boot_list_2_cmd_2_ls
 .u_boot_list_2_cmd_2_lzmadec
                0x000000008209c018       0x38 cmd/built-in.o
                0x000000008209c018                _u_boot_list_2_cmd_2_lzmadec
 .u_boot_list_2_cmd_2_mac
                0x000000008209c050       0x38 cmd/built-in.o
                0x000000008209c050                _u_boot_list_2_cmd_2_mac
 .u_boot_list_2_cmd_2_md
                0x000000008209c088       0x38 cmd/built-in.o
                0x000000008209c088                _u_boot_list_2_cmd_2_md
 .u_boot_list_2_cmd_2_mdio
                0x000000008209c0c0       0x38 cmd/built-in.o
                0x000000008209c0c0                _u_boot_list_2_cmd_2_mdio
 .u_boot_list_2_cmd_2_mii
                0x000000008209c0f8       0x38 cmd/built-in.o
                0x000000008209c0f8                _u_boot_list_2_cmd_2_mii
 .u_boot_list_2_cmd_2_mm
                0x000000008209c130       0x38 cmd/built-in.o
                0x000000008209c130                _u_boot_list_2_cmd_2_mm
 .u_boot_list_2_cmd_2_mmc
                0x000000008209c168       0x38 cmd/built-in.o
                0x000000008209c168                _u_boot_list_2_cmd_2_mmc
 .u_boot_list_2_cmd_2_mmcinfo
                0x000000008209c1a0       0x38 cmd/built-in.o
                0x000000008209c1a0                _u_boot_list_2_cmd_2_mmcinfo
 .u_boot_list_2_cmd_2_mw
                0x000000008209c1d8       0x38 cmd/built-in.o
                0x000000008209c1d8                _u_boot_list_2_cmd_2_mw
 .u_boot_list_2_cmd_2_nand
                0x000000008209c210       0x38 cmd/built-in.o
                0x000000008209c210                _u_boot_list_2_cmd_2_nand
 .u_boot_list_2_cmd_2_nboot
                0x000000008209c248       0x38 cmd/built-in.o
                0x000000008209c248                _u_boot_list_2_cmd_2_nboot
 .u_boot_list_2_cmd_2_nfs
                0x000000008209c280       0x38 cmd/built-in.o
                0x000000008209c280                _u_boot_list_2_cmd_2_nfs
 .u_boot_list_2_cmd_2_nm
                0x000000008209c2b8       0x38 cmd/built-in.o
                0x000000008209c2b8                _u_boot_list_2_cmd_2_nm
 .u_boot_list_2_cmd_2_part
                0x000000008209c2f0       0x38 cmd/built-in.o
                0x000000008209c2f0                _u_boot_list_2_cmd_2_part
 .u_boot_list_2_cmd_2_pci
                0x000000008209c328       0x38 cmd/built-in.o
                0x000000008209c328                _u_boot_list_2_cmd_2_pci
 .u_boot_list_2_cmd_2_ping
                0x000000008209c360       0x38 cmd/built-in.o
                0x000000008209c360                _u_boot_list_2_cmd_2_ping
 .u_boot_list_2_cmd_2_pmic
                0x000000008209c398       0x38 drivers/power/built-in.o
                0x000000008209c398                _u_boot_list_2_cmd_2_pmic
 .u_boot_list_2_cmd_2_printenv
                0x000000008209c3d0       0x38 cmd/built-in.o
                0x000000008209c3d0                _u_boot_list_2_cmd_2_printenv
 .u_boot_list_2_cmd_2_protect
                0x000000008209c408       0x38 cmd/built-in.o
                0x000000008209c408                _u_boot_list_2_cmd_2_protect
 .u_boot_list_2_cmd_2_pxe
                0x000000008209c440       0x38 cmd/built-in.o
                0x000000008209c440                _u_boot_list_2_cmd_2_pxe
 .u_boot_list_2_cmd_2_question_mark
                0x000000008209c478       0x38 cmd/built-in.o
                0x000000008209c478                _u_boot_list_2_cmd_2_question_mark
 .u_boot_list_2_cmd_2_reset
                0x000000008209c4b0       0x38 cmd/built-in.o
                0x000000008209c4b0                _u_boot_list_2_cmd_2_reset
 .u_boot_list_2_cmd_2_run
                0x000000008209c4e8       0x38 cmd/built-in.o
                0x000000008209c4e8                _u_boot_list_2_cmd_2_run
 .u_boot_list_2_cmd_2_save
                0x000000008209c520       0x38 cmd/built-in.o
                0x000000008209c520                _u_boot_list_2_cmd_2_save
 .u_boot_list_2_cmd_2_saveenv
                0x000000008209c558       0x38 cmd/built-in.o
                0x000000008209c558                _u_boot_list_2_cmd_2_saveenv
 .u_boot_list_2_cmd_2_scsi
                0x000000008209c590       0x38 cmd/built-in.o
                0x000000008209c590                _u_boot_list_2_cmd_2_scsi
 .u_boot_list_2_cmd_2_scsiboot
                0x000000008209c5c8       0x38 cmd/built-in.o
                0x000000008209c5c8                _u_boot_list_2_cmd_2_scsiboot
 .u_boot_list_2_cmd_2_setenv
                0x000000008209c600       0x38 cmd/built-in.o
                0x000000008209c600                _u_boot_list_2_cmd_2_setenv
 .u_boot_list_2_cmd_2_setexpr
                0x000000008209c638       0x38 cmd/built-in.o
                0x000000008209c638                _u_boot_list_2_cmd_2_setexpr
 .u_boot_list_2_cmd_2_sf
                0x000000008209c670       0x38 cmd/built-in.o
                0x000000008209c670                _u_boot_list_2_cmd_2_sf
 .u_boot_list_2_cmd_2_showvar
                0x000000008209c6a8       0x38 common/built-in.o
                0x000000008209c6a8                _u_boot_list_2_cmd_2_showvar
 .u_boot_list_2_cmd_2_size
                0x000000008209c6e0       0x38 cmd/built-in.o
                0x000000008209c6e0                _u_boot_list_2_cmd_2_size
 .u_boot_list_2_cmd_2_sleep
                0x000000008209c718       0x38 cmd/built-in.o
                0x000000008209c718                _u_boot_list_2_cmd_2_sleep
 .u_boot_list_2_cmd_2_source
                0x000000008209c750       0x38 cmd/built-in.o
                0x000000008209c750                _u_boot_list_2_cmd_2_source
 .u_boot_list_2_cmd_2_sysboot
                0x000000008209c788       0x38 cmd/built-in.o
                0x000000008209c788                _u_boot_list_2_cmd_2_sysboot
 .u_boot_list_2_cmd_2_test
                0x000000008209c7c0       0x38 cmd/built-in.o
                0x000000008209c7c0                _u_boot_list_2_cmd_2_test
 .u_boot_list_2_cmd_2_tftpboot
                0x000000008209c7f8       0x38 cmd/built-in.o
                0x000000008209c7f8                _u_boot_list_2_cmd_2_tftpboot
 .u_boot_list_2_cmd_2_true
                0x000000008209c830       0x38 cmd/built-in.o
                0x000000008209c830                _u_boot_list_2_cmd_2_true
 .u_boot_list_2_cmd_2_unzip
                0x000000008209c868       0x38 cmd/built-in.o
                0x000000008209c868                _u_boot_list_2_cmd_2_unzip
 .u_boot_list_2_cmd_2_updateu
                0x000000008209c8a0       0x38 board/freescale/ls1046afrwy/built-in.o
                0x000000008209c8a0                _u_boot_list_2_cmd_2_updateu
 .u_boot_list_2_cmd_2_usb
                0x000000008209c8d8       0x38 cmd/built-in.o
                0x000000008209c8d8                _u_boot_list_2_cmd_2_usb
 .u_boot_list_2_cmd_2_usbboot
                0x000000008209c910       0x38 cmd/built-in.o
                0x000000008209c910                _u_boot_list_2_cmd_2_usbboot
 .u_boot_list_2_cmd_2_version
                0x000000008209c948       0x38 cmd/built-in.o
                0x000000008209c948                _u_boot_list_2_cmd_2_version
 .u_boot_list_2_cmd_3
                0x000000008209c980        0x0 cmd/built-in.o
 .u_boot_list_2_cmd_3
                0x000000008209c980        0x0 common/built-in.o
 .u_boot_list_2_driver_1
                0x000000008209c980        0x0 drivers/built-in.o
 .u_boot_list_2_driver_1
                0x000000008209c980        0x0 lib/built-in.o
 .u_boot_list_2_driver_2_ahci_scsi
                0x000000008209c980       0x78 drivers/built-in.o
                0x000000008209c980                _u_boot_list_2_driver_2_ahci_scsi
 .u_boot_list_2_driver_2_ceva_host_blk
                0x000000008209c9f8       0x78 drivers/built-in.o
                0x000000008209c9f8                _u_boot_list_2_driver_2_ceva_host_blk
 .u_boot_list_2_driver_2_efi_blk
                0x000000008209ca70       0x78 lib/built-in.o
                0x000000008209ca70                _u_boot_list_2_driver_2_efi_blk
 .u_boot_list_2_driver_2_efi_block
                0x000000008209cae8       0x78 lib/built-in.o
                0x000000008209cae8                _u_boot_list_2_driver_2_efi_block
 .u_boot_list_2_driver_2_fsl_esdhc
                0x000000008209cb60       0x78 drivers/built-in.o
                0x000000008209cb60                _u_boot_list_2_driver_2_fsl_esdhc
 .u_boot_list_2_driver_2_fsl_qspi
                0x000000008209cbd8       0x78 drivers/spi/built-in.o
                0x000000008209cbd8                _u_boot_list_2_driver_2_fsl_qspi
 .u_boot_list_2_driver_2_mmc
                0x000000008209cc50       0x78 drivers/built-in.o
                0x000000008209cc50                _u_boot_list_2_driver_2_mmc
 .u_boot_list_2_driver_2_mmc_blk
                0x000000008209ccc8       0x78 drivers/built-in.o
                0x000000008209ccc8                _u_boot_list_2_driver_2_mmc_blk
 .u_boot_list_2_driver_2_pci_bridge_drv
                0x000000008209cd40       0x78 drivers/built-in.o
                0x000000008209cd40                _u_boot_list_2_driver_2_pci_bridge_drv
 .u_boot_list_2_driver_2_pci_generic_drv
                0x000000008209cdb8       0x78 drivers/built-in.o
                0x000000008209cdb8                _u_boot_list_2_driver_2_pci_generic_drv
 .u_boot_list_2_driver_2_pci_layerscape
                0x000000008209ce30       0x78 drivers/built-in.o
                0x000000008209ce30                _u_boot_list_2_driver_2_pci_layerscape
 .u_boot_list_2_driver_2_root_driver
                0x000000008209cea8       0x78 drivers/built-in.o
                0x000000008209cea8                _u_boot_list_2_driver_2_root_driver
 .u_boot_list_2_driver_2_scsi_blk
                0x000000008209cf20       0x78 drivers/built-in.o
                0x000000008209cf20                _u_boot_list_2_driver_2_scsi_blk
 .u_boot_list_2_driver_2_simple_bus_drv
                0x000000008209cf98       0x78 drivers/built-in.o
                0x000000008209cf98                _u_boot_list_2_driver_2_simple_bus_drv
 .u_boot_list_2_driver_2_spi_flash_std
                0x000000008209d010       0x78 drivers/mtd/spi/built-in.o
                0x000000008209d010                _u_boot_list_2_driver_2_spi_flash_std
 .u_boot_list_2_driver_2_spi_generic_drv
                0x000000008209d088       0x78 drivers/spi/built-in.o
                0x000000008209d088                _u_boot_list_2_driver_2_spi_generic_drv
 .u_boot_list_2_driver_2_usb_dev_generic_drv
                0x000000008209d100       0x78 drivers/usb/host/built-in.o
                0x000000008209d100                _u_boot_list_2_driver_2_usb_dev_generic_drv
 .u_boot_list_2_driver_2_usb_generic_hub
                0x000000008209d178       0x78 common/built-in.o
                0x000000008209d178                _u_boot_list_2_driver_2_usb_generic_hub
 .u_boot_list_2_driver_2_usb_mass_storage
                0x000000008209d1f0       0x78 common/built-in.o
                0x000000008209d1f0                _u_boot_list_2_driver_2_usb_mass_storage
 .u_boot_list_2_driver_2_usb_storage_blk
                0x000000008209d268       0x78 common/built-in.o
                0x000000008209d268                _u_boot_list_2_driver_2_usb_storage_blk
 .u_boot_list_2_driver_2_xhci_dwc3
                0x000000008209d2e0       0x78 drivers/usb/host/built-in.o
                0x000000008209d2e0                _u_boot_list_2_driver_2_xhci_dwc3
 .u_boot_list_2_driver_2_xhci_fsl
                0x000000008209d358       0x78 drivers/usb/host/built-in.o
                0x000000008209d358                _u_boot_list_2_driver_2_xhci_fsl
 .u_boot_list_2_driver_3
                0x000000008209d3d0        0x0 drivers/built-in.o
 .u_boot_list_2_driver_3
                0x000000008209d3d0        0x0 lib/built-in.o
 .u_boot_list_2_driver_info_1
                0x000000008209d3d0        0x0 drivers/built-in.o
 .u_boot_list_2_driver_info_3
                0x000000008209d3d0        0x0 drivers/built-in.o
 .u_boot_list_2_env_clbk_1
                0x000000008209d3d0        0x0 env/built-in.o
 .u_boot_list_2_env_clbk_2_baudrate
                0x000000008209d3d0       0x10 drivers/serial/built-in.o
                0x000000008209d3d0                _u_boot_list_2_env_clbk_2_baudrate
 .u_boot_list_2_env_clbk_2_callbacks
                0x000000008209d3e0       0x10 env/built-in.o
                0x000000008209d3e0                _u_boot_list_2_env_clbk_2_callbacks
 .u_boot_list_2_env_clbk_2_console
                0x000000008209d3f0       0x10 common/built-in.o
                0x000000008209d3f0                _u_boot_list_2_env_clbk_2_console
 .u_boot_list_2_env_clbk_2_ethaddr
                0x000000008209d400       0x10 net/built-in.o
                0x000000008209d400                _u_boot_list_2_env_clbk_2_ethaddr
 .u_boot_list_2_env_clbk_2_flags
                0x000000008209d410       0x10 env/built-in.o
                0x000000008209d410                _u_boot_list_2_env_clbk_2_flags
 .u_boot_list_2_env_clbk_2_gatewayip
                0x000000008209d420       0x10 net/built-in.o
                0x000000008209d420                _u_boot_list_2_env_clbk_2_gatewayip
 .u_boot_list_2_env_clbk_2_ipaddr
                0x000000008209d430       0x10 net/built-in.o
                0x000000008209d430                _u_boot_list_2_env_clbk_2_ipaddr
 .u_boot_list_2_env_clbk_2_loadaddr
                0x000000008209d440       0x10 common/built-in.o
                0x000000008209d440                _u_boot_list_2_env_clbk_2_loadaddr
 .u_boot_list_2_env_clbk_2_netmask
                0x000000008209d450       0x10 net/built-in.o
                0x000000008209d450                _u_boot_list_2_env_clbk_2_netmask
 .u_boot_list_2_env_clbk_2_nvlan
                0x000000008209d460       0x10 net/built-in.o
                0x000000008209d460                _u_boot_list_2_env_clbk_2_nvlan
 .u_boot_list_2_env_clbk_2_serverip
                0x000000008209d470       0x10 net/built-in.o
                0x000000008209d470                _u_boot_list_2_env_clbk_2_serverip
 .u_boot_list_2_env_clbk_2_vlan
                0x000000008209d480       0x10 net/built-in.o
                0x000000008209d480                _u_boot_list_2_env_clbk_2_vlan
 .u_boot_list_2_env_clbk_3
                0x000000008209d490        0x0 env/built-in.o
 .u_boot_list_2_env_driver_1
                0x000000008209d490        0x0 env/built-in.o
 .u_boot_list_2_env_driver_2_mmc
                0x000000008209d490       0x28 env/built-in.o
                0x000000008209d490                _u_boot_list_2_env_driver_2_mmc
 .u_boot_list_2_env_driver_2_sf
                0x000000008209d4b8       0x28 env/built-in.o
                0x000000008209d4b8                _u_boot_list_2_env_driver_2_sf
 .u_boot_list_2_env_driver_3
                0x000000008209d4e0        0x0 env/built-in.o
 .u_boot_list_2_fit_loadable_1
                0x000000008209d4e0        0x0 common/built-in.o
 .u_boot_list_2_fit_loadable_3
                0x000000008209d4e0        0x0 common/built-in.o
 .u_boot_list_2_i2c_1
                0x000000008209d4e0        0x0 cmd/built-in.o
 .u_boot_list_2_i2c_1
                0x000000008209d4e0        0x0 drivers/i2c/built-in.o
 .u_boot_list_2_i2c_2_mxc0
                0x000000008209d4e0       0x48 drivers/i2c/built-in.o
                0x000000008209d4e0                _u_boot_list_2_i2c_2_mxc0
 .u_boot_list_2_i2c_2_mxc1
                0x000000008209d528       0x48 drivers/i2c/built-in.o
                0x000000008209d528                _u_boot_list_2_i2c_2_mxc1
 .u_boot_list_2_i2c_2_mxc2
                0x000000008209d570       0x48 drivers/i2c/built-in.o
                0x000000008209d570                _u_boot_list_2_i2c_2_mxc2
 .u_boot_list_2_i2c_2_mxc3
                0x000000008209d5b8       0x48 drivers/i2c/built-in.o
                0x000000008209d5b8                _u_boot_list_2_i2c_2_mxc3
 .u_boot_list_2_i2c_3
                0x000000008209d600        0x0 cmd/built-in.o
 .u_boot_list_2_i2c_3
                0x000000008209d600        0x0 drivers/i2c/built-in.o
 .u_boot_list_2_part_driver_1
                0x000000008209d600        0x0 disk/built-in.o
 .u_boot_list_2_part_driver_2_a_efi
                0x000000008209d600       0x28 disk/built-in.o
                0x000000008209d600                _u_boot_list_2_part_driver_2_a_efi
 .u_boot_list_2_part_driver_2_dos
                0x000000008209d628       0x28 disk/built-in.o
                0x000000008209d628                _u_boot_list_2_part_driver_2_dos
 .u_boot_list_2_part_driver_2_iso
                0x000000008209d650       0x28 disk/built-in.o
                0x000000008209d650                _u_boot_list_2_part_driver_2_iso
 .u_boot_list_2_part_driver_3
                0x000000008209d678        0x0 disk/built-in.o
 .u_boot_list_2_pci_driver_entry_1
                0x000000008209d678        0x0 drivers/built-in.o
 .u_boot_list_2_pci_driver_entry_3
                0x000000008209d678        0x0 drivers/built-in.o
 .u_boot_list_2_uclass_1
                0x000000008209d678        0x0 drivers/built-in.o
 .u_boot_list_2_uclass_2_ahci
                0x000000008209d678       0x88 drivers/built-in.o
                0x000000008209d678                _u_boot_list_2_uclass_2_ahci
 .u_boot_list_2_uclass_2_blk
                0x000000008209d700       0x88 drivers/built-in.o
                0x000000008209d700                _u_boot_list_2_uclass_2_blk
 .u_boot_list_2_uclass_2_efi
                0x000000008209d788       0x88 lib/built-in.o
                0x000000008209d788                _u_boot_list_2_uclass_2_efi
 .u_boot_list_2_uclass_2_mmc
                0x000000008209d810       0x88 drivers/built-in.o
                0x000000008209d810                _u_boot_list_2_uclass_2_mmc
 .u_boot_list_2_uclass_2_pci
                0x000000008209d898       0x88 drivers/built-in.o
                0x000000008209d898                _u_boot_list_2_uclass_2_pci
 .u_boot_list_2_uclass_2_pci_generic
                0x000000008209d920       0x88 drivers/built-in.o
                0x000000008209d920                _u_boot_list_2_uclass_2_pci_generic
 .u_boot_list_2_uclass_2_root
                0x000000008209d9a8       0x88 drivers/built-in.o
                0x000000008209d9a8                _u_boot_list_2_uclass_2_root
 .u_boot_list_2_uclass_2_scsi
                0x000000008209da30       0x88 drivers/built-in.o
                0x000000008209da30                _u_boot_list_2_uclass_2_scsi
 .u_boot_list_2_uclass_2_simple_bus
                0x000000008209dab8       0x88 drivers/built-in.o
                0x000000008209dab8                _u_boot_list_2_uclass_2_simple_bus
 .u_boot_list_2_uclass_2_spi
                0x000000008209db40       0x88 drivers/spi/built-in.o
                0x000000008209db40                _u_boot_list_2_uclass_2_spi
 .u_boot_list_2_uclass_2_spi_generic
                0x000000008209dbc8       0x88 drivers/spi/built-in.o
                0x000000008209dbc8                _u_boot_list_2_uclass_2_spi_generic
 .u_boot_list_2_uclass_2_spi_nor
                0x000000008209dc50       0x88 drivers/mtd/spi/built-in.o
                0x000000008209dc50                _u_boot_list_2_uclass_2_spi_nor
 .u_boot_list_2_uclass_2_usb
                0x000000008209dcd8       0x88 drivers/usb/host/built-in.o
                0x000000008209dcd8                _u_boot_list_2_uclass_2_usb
 .u_boot_list_2_uclass_2_usb_dev_generic
                0x000000008209dd60       0x88 drivers/usb/host/built-in.o
                0x000000008209dd60                _u_boot_list_2_uclass_2_usb_dev_generic
 .u_boot_list_2_uclass_2_usb_hub
                0x000000008209dde8       0x88 common/built-in.o
                0x000000008209dde8                _u_boot_list_2_uclass_2_usb_hub
 .u_boot_list_2_uclass_2_usb_mass_storage
                0x000000008209de70       0x88 common/built-in.o
                0x000000008209de70                _u_boot_list_2_uclass_2_usb_mass_storage
 .u_boot_list_2_uclass_3
                0x000000008209def8        0x0 drivers/built-in.o
 .u_boot_list_2_usb_driver_entry_1
                0x000000008209def8        0x0 drivers/usb/host/built-in.o
 .u_boot_list_2_usb_driver_entry_2_usb_generic_hub
                0x000000008209def8       0x10 common/built-in.o
                0x000000008209def8                _u_boot_list_2_usb_driver_entry_2_usb_generic_hub
 .u_boot_list_2_usb_driver_entry_2_usb_mass_storage
                0x000000008209df08       0x10 common/built-in.o
                0x000000008209df08                _u_boot_list_2_usb_driver_entry_2_usb_mass_storage
 .u_boot_list_2_usb_driver_entry_3
                0x000000008209df18        0x0 drivers/usb/host/built-in.o
                0x000000008209df18                . = ALIGN (0x8)

.efi_runtime_rel
                0x000000008209df18      0x1e0
                0x000000008209df18                __efi_runtime_rel_start = .
 *(.rel*.efi_runtime)
 .rela.data.efi_runtime
                0x000000008209df18      0x1e0 arch/arm/cpu/armv8/start.o
 *(.rel*.efi_runtime.*)
                0x000000008209e0f8                __efi_runtime_rel_stop = .
                0x000000008209e0f8                . = ALIGN (0x8)

.image_copy_end
                0x000000008209e0f8        0x0
 *(.__image_copy_end)
 .__image_copy_end
                0x000000008209e0f8        0x0 arch/arm/lib/built-in.o
                0x000000008209e0f8                . = ALIGN (0x8)

.rel_dyn_start  0x000000008209e0f8        0x0
 *(.__rel_dyn_start)
 .__rel_dyn_start
                0x000000008209e0f8        0x0 arch/arm/lib/built-in.o

.rela.dyn       0x000000008209e0f8     0xd290
 *(.rela*)
 .rela.got      0x000000008209e0f8        0x0 arch/arm/cpu/armv8/start.o
 .rela.plt      0x000000008209e0f8        0x0 arch/arm/cpu/armv8/start.o
 .rela.bss      0x000000008209e0f8        0x0 arch/arm/cpu/armv8/start.o
 .rela.data.rel.ro
                0x000000008209e0f8        0x0 arch/arm/cpu/armv8/start.o
 .rela.ifunc    0x000000008209e0f8        0x0 arch/arm/cpu/armv8/start.o
 .rela.text     0x000000008209e0f8       0x90 arch/arm/cpu/armv8/start.o
 .rela.rodata.phy_interface_strings
                0x000000008209e188      0x210 arch/arm/cpu/armv8/start.o
 .rela.rodata.serdes_cfg_tbl
                0x000000008209e398       0x30 arch/arm/cpu/armv8/start.o
 .rela.data.mem_map
                0x000000008209e3c8       0x18 arch/arm/cpu/armv8/start.o
 .rela.data.icid_tbl
                0x000000008209e3e0      0x138 arch/arm/cpu/armv8/start.o
 .rela.u_boot_list_2_cmd_2_updateu
                0x000000008209e518       0x78 arch/arm/cpu/armv8/start.o
 .rela.rodata.fdt_member_table
                0x000000008209e590       0xf0 arch/arm/cpu/armv8/start.o
 .rela.rodata.op_table
                0x000000008209e680      0x138 arch/arm/cpu/armv8/start.o
 .rela.rodata.desc_and_len_tbl
                0x000000008209e7b8       0x90 arch/arm/cpu/armv8/start.o
 .rela.rodata.reg_0_5_desc_tbl
                0x000000008209e848       0x90 arch/arm/cpu/armv8/start.o
 .rela.rodata.reg_0_desc_tbl
                0x000000008209e8d8       0xf0 arch/arm/cpu/armv8/start.o
 .rela.rodata.reg_1_desc_tbl
                0x000000008209e9c8      0x180 arch/arm/cpu/armv8/start.o
 .rela.rodata.reg_2_desc_tbl
                0x000000008209eb48       0x18 arch/arm/cpu/armv8/start.o
 .rela.rodata.reg_3_desc_tbl
                0x000000008209eb60       0x48 arch/arm/cpu/armv8/start.o
 .rela.rodata.reg_4_desc_tbl
                0x000000008209eba8      0x120 arch/arm/cpu/armv8/start.o
 .rela.rodata.reg_5_desc_tbl
                0x000000008209ecc8      0x120 arch/arm/cpu/armv8/start.o
 .rela.rodata.efi_var_attrs
                0x000000008209ede8       0x78 arch/arm/cpu/armv8/start.o
 .rela.rodata.pci_flag_info
                0x000000008209ee60       0x78 arch/arm/cpu/armv8/start.o
 .rela.rodata.keywords
                0x000000008209eed8      0x1b0 arch/arm/cpu/armv8/start.o
 .rela.rodata.op_adv
                0x000000008209f088      0x180 arch/arm/cpu/armv8/start.o
 .rela.rodata.CSWTCH.40
                0x000000008209f208       0x78 arch/arm/cpu/armv8/start.o
 .rela.u_boot_list_2_cmd_2_go
                0x000000008209f280       0x78 arch/arm/cpu/armv8/start.o
 .rela.u_boot_list_2_cmd_2_reset
                0x000000008209f2f8       0x78 arch/arm/cpu/armv8/start.o
 .rela.data.cmd_bootm_sub
                0x000000008209f370      0x360 arch/arm/cpu/armv8/start.o
 .rela.u_boot_list_2_cmd_2_boot
                0x000000008209f6d0       0x78 arch/arm/cpu/armv8/start.o
 .rela.u_boot_list_2_cmd_2_bootd
                0x000000008209f748       0x78 arch/arm/cpu/armv8/start.o
 .rela.u_boot_list_2_cmd_2_bootm
                0x000000008209f7c0       0x78 arch/arm/cpu/armv8/start.o
 .rela.u_boot_list_2_cmd_2_iminfo
                0x000000008209f838       0x78 arch/arm/cpu/armv8/start.o
 .rela.u_boot_list_2_cmd_2_help
                0x000000008209f8b0       0x78 arch/arm/cpu/armv8/start.o
 .rela.u_boot_list_2_cmd_2_question_mark
                0x000000008209f928       0x78 arch/arm/cpu/armv8/start.o
 .rela.u_boot_list_2_cmd_2_version
                0x000000008209f9a0       0x78 arch/arm/cpu/armv8/start.o
 .rela.u_boot_list_2_cmd_2_source
                0x000000008209fa18       0x78 arch/arm/cpu/armv8/start.o
 .rela.u_boot_list_2_cmd_2_bdinfo
                0x000000008209fa90       0x78 arch/arm/cpu/armv8/start.o
 .rela.data.cmd_blkc_sub
                0x000000008209fb08       0xf0 arch/arm/cpu/armv8/start.o
 .rela.u_boot_list_2_cmd_2_blkcache
                0x000000008209fbf8       0x78 arch/arm/cpu/armv8/start.o
 .rela.u_boot_list_2_cmd_2_bootefi
                0x000000008209fc70       0x78 arch/arm/cpu/armv8/start.o
 .rela.u_boot_list_2_cmd_2_booti
                0x000000008209fce8       0x78 arch/arm/cpu/armv8/start.o
 .rela.u_boot_list_2_cmd_2_dcache
                0x000000008209fd60       0x78 arch/arm/cpu/armv8/start.o
 .rela.u_boot_list_2_cmd_2_icache
                0x000000008209fdd8       0x78 arch/arm/cpu/armv8/start.o
 .rela.u_boot_list_2_cmd_2_coninfo
                0x000000008209fe50       0x78 arch/arm/cpu/armv8/start.o
 .rela.u_boot_list_2_cmd_2_echo
                0x000000008209fec8       0x78 arch/arm/cpu/armv8/start.o
 .rela.u_boot_list_2_cmd_2_bootelf
                0x000000008209ff40       0x78 arch/arm/cpu/armv8/start.o
 .rela.u_boot_list_2_cmd_2_bootvx
                0x000000008209ffb8       0x78 arch/arm/cpu/armv8/start.o
 .rela.u_boot_list_2_cmd_2_exit
                0x00000000820a0030       0x78 arch/arm/cpu/armv8/start.o
 .rela.u_boot_list_2_cmd_2_ext4load
                0x00000000820a00a8       0x78 arch/arm/cpu/armv8/start.o
 .rela.u_boot_list_2_cmd_2_ext4ls
                0x00000000820a0120       0x78 arch/arm/cpu/armv8/start.o
 .rela.u_boot_list_2_cmd_2_ext4size
                0x00000000820a0198       0x78 arch/arm/cpu/armv8/start.o
 .rela.u_boot_list_2_cmd_2_ext2load
                0x00000000820a0210       0x78 arch/arm/cpu/armv8/start.o
 .rela.u_boot_list_2_cmd_2_ext2ls
                0x00000000820a0288       0x78 arch/arm/cpu/armv8/start.o
 .rela.u_boot_list_2_cmd_2_fatinfo
                0x00000000820a0300       0x78 arch/arm/cpu/armv8/start.o
 .rela.u_boot_list_2_cmd_2_fatload
                0x00000000820a0378       0x78 arch/arm/cpu/armv8/start.o
 .rela.u_boot_list_2_cmd_2_fatls
                0x00000000820a03f0       0x78 arch/arm/cpu/armv8/start.o
 .rela.u_boot_list_2_cmd_2_fatsize
                0x00000000820a0468       0x78 arch/arm/cpu/armv8/start.o
 .rela.u_boot_list_2_cmd_2_fdt
                0x00000000820a04e0       0x78 arch/arm/cpu/armv8/start.o
 .rela.u_boot_list_2_cmd_2_erase
                0x00000000820a0558       0x78 arch/arm/cpu/armv8/start.o
 .rela.u_boot_list_2_cmd_2_flinfo
                0x00000000820a05d0       0x78 arch/arm/cpu/armv8/start.o
 .rela.u_boot_list_2_cmd_2_protect
                0x00000000820a0648       0x78 arch/arm/cpu/armv8/start.o
 .rela.u_boot_list_2_cmd_2_fstype
                0x00000000820a06c0       0x78 arch/arm/cpu/armv8/start.o
 .rela.u_boot_list_2_cmd_2_load
                0x00000000820a0738       0x78 arch/arm/cpu/armv8/start.o
 .rela.u_boot_list_2_cmd_2_ls
                0x00000000820a07b0       0x78 arch/arm/cpu/armv8/start.o
 .rela.u_boot_list_2_cmd_2_save
                0x00000000820a0828       0x78 arch/arm/cpu/armv8/start.o
 .rela.u_boot_list_2_cmd_2_size
                0x00000000820a08a0       0x78 arch/arm/cpu/armv8/start.o
 .rela.data.cmd_i2c_sub
                0x00000000820a0918      0x618 arch/arm/cpu/armv8/start.o
 .rela.u_boot_list_2_cmd_2_i2c
                0x00000000820a0f30       0x78 arch/arm/cpu/armv8/start.o
 .rela.u_boot_list_2_cmd_2_hash
                0x00000000820a0fa8       0x78 arch/arm/cpu/armv8/start.o
 .rela.u_boot_list_2_cmd_2_itest
                0x00000000820a1020       0x78 arch/arm/cpu/armv8/start.o
 .rela.u_boot_list_2_cmd_2_loadb
                0x00000000820a1098       0x78 arch/arm/cpu/armv8/start.o
 .rela.u_boot_list_2_cmd_2_loads
                0x00000000820a1110       0x78 arch/arm/cpu/armv8/start.o
 .rela.u_boot_list_2_cmd_2_loadx
                0x00000000820a1188       0x78 arch/arm/cpu/armv8/start.o
 .rela.u_boot_list_2_cmd_2_loady
                0x00000000820a1200       0x78 arch/arm/cpu/armv8/start.o
 .rela.u_boot_list_2_cmd_2_mac
                0x00000000820a1278       0x78 arch/arm/cpu/armv8/start.o
 .rela.u_boot_list_2_cmd_2_base
                0x00000000820a12f0       0x78 arch/arm/cpu/armv8/start.o
 .rela.u_boot_list_2_cmd_2_cmp
                0x00000000820a1368       0x78 arch/arm/cpu/armv8/start.o
 .rela.u_boot_list_2_cmd_2_cp
                0x00000000820a13e0       0x78 arch/arm/cpu/armv8/start.o
 .rela.u_boot_list_2_cmd_2_crc32
                0x00000000820a1458       0x78 arch/arm/cpu/armv8/start.o
 .rela.u_boot_list_2_cmd_2_loop
                0x00000000820a14d0       0x78 arch/arm/cpu/armv8/start.o
 .rela.u_boot_list_2_cmd_2_md
                0x00000000820a1548       0x78 arch/arm/cpu/armv8/start.o
 .rela.u_boot_list_2_cmd_2_mm
                0x00000000820a15c0       0x78 arch/arm/cpu/armv8/start.o
 .rela.u_boot_list_2_cmd_2_mw
                0x00000000820a1638       0x78 arch/arm/cpu/armv8/start.o
 .rela.u_boot_list_2_cmd_2_nm
                0x00000000820a16b0       0x78 arch/arm/cpu/armv8/start.o
 .rela.u_boot_list_2_cmd_2_mii
                0x00000000820a1728       0x78 arch/arm/cpu/armv8/start.o
 .rela.u_boot_list_2_cmd_2_mdio
                0x00000000820a17a0       0x78 arch/arm/cpu/armv8/start.o
 .rela.u_boot_list_2_cmd_2_sleep
                0x00000000820a1818       0x78 arch/arm/cpu/armv8/start.o
 .rela.data.cmd_mmc
                0x00000000820a1890      0x4b0 arch/arm/cpu/armv8/start.o
 .rela.u_boot_list_2_cmd_2_mmc
                0x00000000820a1d40       0x78 arch/arm/cpu/armv8/start.o
 .rela.u_boot_list_2_cmd_2_mmcinfo
                0x00000000820a1db8       0x78 arch/arm/cpu/armv8/start.o
 .rela.u_boot_list_2_cmd_2_cpu
                0x00000000820a1e30       0x78 arch/arm/cpu/armv8/start.o
 .rela.u_boot_list_2_cmd_2_nand
                0x00000000820a1ea8       0x78 arch/arm/cpu/armv8/start.o
 .rela.u_boot_list_2_cmd_2_nboot
                0x00000000820a1f20       0x78 arch/arm/cpu/armv8/start.o
 .rela.u_boot_list_2_cmd_2_bootp
                0x00000000820a1f98       0x78 arch/arm/cpu/armv8/start.o
 .rela.u_boot_list_2_cmd_2_dhcp
                0x00000000820a2010       0x78 arch/arm/cpu/armv8/start.o
 .rela.u_boot_list_2_cmd_2_nfs
                0x00000000820a2088       0x78 arch/arm/cpu/armv8/start.o
 .rela.u_boot_list_2_cmd_2_ping
                0x00000000820a2100       0x78 arch/arm/cpu/armv8/start.o
 .rela.u_boot_list_2_cmd_2_tftpboot
                0x00000000820a2178       0x78 arch/arm/cpu/armv8/start.o
 .rela.u_boot_list_2_cmd_2_part
                0x00000000820a21f0       0x78 arch/arm/cpu/armv8/start.o
 .rela.data.regs_bridge
                0x00000000820a2268      0x1e0 arch/arm/cpu/armv8/start.o
 .rela.data.regs_cardbus
                0x00000000820a2448      0x240 arch/arm/cpu/armv8/start.o
 .rela.data.regs_normal
                0x00000000820a2688      0x138 arch/arm/cpu/armv8/start.o
 .rela.data.regs_rest
                0x00000000820a27c0       0xa8 arch/arm/cpu/armv8/start.o
 .rela.data.regs_start
                0x00000000820a2868       0x78 arch/arm/cpu/armv8/start.o
 .rela.u_boot_list_2_cmd_2_pci
                0x00000000820a28e0       0x78 arch/arm/cpu/armv8/start.o
 .rela.data.cmd_pxe_sub
                0x00000000820a2958       0xf0 arch/arm/cpu/armv8/start.o
 .rela.data.pxe_default_paths
                0x00000000820a2a48       0x48 arch/arm/cpu/armv8/start.o
 .rela.u_boot_list_2_cmd_2_pxe
                0x00000000820a2a90       0x78 arch/arm/cpu/armv8/start.o
 .rela.u_boot_list_2_cmd_2_sysboot
                0x00000000820a2b08       0x78 arch/arm/cpu/armv8/start.o
 .rela.u_boot_list_2_cmd_2_sf
                0x00000000820a2b80       0x78 arch/arm/cpu/armv8/start.o
 .rela.u_boot_list_2_cmd_2_scsi
                0x00000000820a2bf8       0x78 arch/arm/cpu/armv8/start.o
 .rela.u_boot_list_2_cmd_2_scsiboot
                0x00000000820a2c70       0x78 arch/arm/cpu/armv8/start.o
 .rela.u_boot_list_2_cmd_2_setexpr
                0x00000000820a2ce8       0x78 arch/arm/cpu/armv8/start.o
 .rela.u_boot_list_2_cmd_2_false
                0x00000000820a2d60       0x60 arch/arm/cpu/armv8/start.o
 .rela.u_boot_list_2_cmd_2_test
                0x00000000820a2dc0       0x78 arch/arm/cpu/armv8/start.o
 .rela.u_boot_list_2_cmd_2_true
                0x00000000820a2e38       0x60 arch/arm/cpu/armv8/start.o
 .rela.u_boot_list_2_cmd_2_gzwrite
                0x00000000820a2e98       0x78 arch/arm/cpu/armv8/start.o
 .rela.u_boot_list_2_cmd_2_unzip
                0x00000000820a2f10       0x78 arch/arm/cpu/armv8/start.o
 .rela.u_boot_list_2_cmd_2_lzmadec
                0x00000000820a2f88       0x78 arch/arm/cpu/armv8/start.o
 .rela.u_boot_list_2_cmd_2_usb
                0x00000000820a3000       0x78 arch/arm/cpu/armv8/start.o
 .rela.u_boot_list_2_cmd_2_usbboot
                0x00000000820a3078       0x78 arch/arm/cpu/armv8/start.o
 .rela.u_boot_list_2_cmd_2_imxtract
                0x00000000820a30f0       0x78 arch/arm/cpu/armv8/start.o
 .rela.u_boot_list_2_cmd_2_gpt
                0x00000000820a3168       0x78 arch/arm/cpu/armv8/start.o
 .rela.data.cmd_env_sub
                0x00000000820a31e0      0x4b0 arch/arm/cpu/armv8/start.o
 .rela.u_boot_list_2_cmd_2_editenv
                0x00000000820a3690       0x90 arch/arm/cpu/armv8/start.o
 .rela.u_boot_list_2_cmd_2_env
                0x00000000820a3720       0x78 arch/arm/cpu/armv8/start.o
 .rela.u_boot_list_2_cmd_2_printenv
                0x00000000820a3798       0x90 arch/arm/cpu/armv8/start.o
 .rela.u_boot_list_2_cmd_2_run
                0x00000000820a3828       0x90 arch/arm/cpu/armv8/start.o
 .rela.u_boot_list_2_cmd_2_saveenv
                0x00000000820a38b8       0x78 arch/arm/cpu/armv8/start.o
 .rela.u_boot_list_2_cmd_2_setenv
                0x00000000820a3930       0x90 arch/arm/cpu/armv8/start.o
 .rela.rodata.init_sequence_f
                0x00000000820a39c0      0x468 arch/arm/cpu/armv8/start.o
 .rela.rodata.boot_os
                0x00000000820a3e28       0xa8 arch/arm/cpu/armv8/start.o
 .rela.rodata.usb_hub_ids
                0x00000000820a3ed0       0x18 arch/arm/cpu/armv8/start.o
 .rela.rodata.usb_mass_storage_ids
                0x00000000820a3ee8       0x18 arch/arm/cpu/armv8/start.o
 .rela.rodata.usb_storage_ops
                0x00000000820a3f00       0x30 arch/arm/cpu/armv8/start.o
 .rela.rodata.uimage_arch
                0x00000000820a3f30      0x510 arch/arm/cpu/armv8/start.o
 .rela.rodata.uimage_comp
                0x00000000820a4440      0x150 arch/arm/cpu/armv8/start.o
 .rela.rodata.uimage_os
                0x00000000820a4590      0x240 arch/arm/cpu/armv8/start.o
 .rela.rodata.uimage_type
                0x00000000820a47d0      0x750 arch/arm/cpu/armv8/start.o
 .rela.rodata.CSWTCH.150
                0x00000000820a4f20      0x2b8 arch/arm/cpu/armv8/start.o
 .rela.rodata.CSWTCH.27
                0x00000000820a51d8       0xc0 arch/arm/cpu/armv8/start.o
 .rela.data.hash_algo
                0x00000000820a5298      0x1e0 arch/arm/cpu/armv8/start.o
 .rela.data.reserved_list
                0x00000000820a5478      0x108 arch/arm/cpu/armv8/start.o
 .rela.u_boot_list_2_cmd_2_showvar
                0x00000000820a5580       0x78 arch/arm/cpu/armv8/start.o
 .rela.data.init_sequence_r
                0x00000000820a55f8      0x330 arch/arm/cpu/armv8/start.o
 .rela.data.of_busses
                0x00000000820a5928       0x78 arch/arm/cpu/armv8/start.o
 .rela.data.usb_scan_list
                0x00000000820a59a0       0x30 arch/arm/cpu/armv8/start.o
 .rela.u_boot_list_2_driver_2_usb_generic_hub
                0x00000000820a59d0       0x30 arch/arm/cpu/armv8/start.o
 .rela.u_boot_list_2_uclass_2_usb_hub
                0x00000000820a5a00       0x60 arch/arm/cpu/armv8/start.o
 .rela.u_boot_list_2_usb_driver_entry_2_usb_generic_hub
                0x00000000820a5a60       0x30 arch/arm/cpu/armv8/start.o
 .rela.u_boot_list_2_driver_2_usb_mass_storage
                0x00000000820a5a90       0x48 arch/arm/cpu/armv8/start.o
 .rela.u_boot_list_2_driver_2_usb_storage_blk
                0x00000000820a5ad8       0x30 arch/arm/cpu/armv8/start.o
 .rela.u_boot_list_2_uclass_2_usb_mass_storage
                0x00000000820a5b08       0x18 arch/arm/cpu/armv8/start.o
 .rela.u_boot_list_2_usb_driver_entry_2_usb_mass_storage
                0x00000000820a5b20       0x30 arch/arm/cpu/armv8/start.o
 .rela.u_boot_list_2_env_clbk_2_console
                0x00000000820a5b50       0x30 arch/arm/cpu/armv8/start.o
 .rela.data.av_
                0x00000000820a5b80     0x1800 arch/arm/cpu/armv8/start.o
 .rela.u_boot_list_2_env_clbk_2_loadaddr
                0x00000000820a7380       0x30 arch/arm/cpu/armv8/start.o
 .rela.data.stdio_names
                0x00000000820a73b0       0x48 arch/arm/cpu/armv8/start.o
 .rela.rodata.CSWTCH.34
                0x00000000820a73f8       0xc0 arch/arm/cpu/armv8/start.o
 .rela.u_boot_list_2_part_driver_2_dos
                0x00000000820a74b8       0x60 arch/arm/cpu/armv8/start.o
 .rela.u_boot_list_2_part_driver_2_iso
                0x00000000820a7518       0x60 arch/arm/cpu/armv8/start.o
 .rela.u_boot_list_2_part_driver_2_a_efi
                0x00000000820a7578       0x60 arch/arm/cpu/armv8/start.o
 .rela.rodata.root_info
                0x00000000820a75d8       0x18 arch/arm/cpu/armv8/start.o
 .rela.rodata.generic_simple_bus_ids
                0x00000000820a75f0       0x30 arch/arm/cpu/armv8/start.o
 .rela.rodata.pci_bridge_ids
                0x00000000820a7620       0x18 arch/arm/cpu/armv8/start.o
 .rela.rodata.pci_bridge_ops
                0x00000000820a7638       0x30 arch/arm/cpu/armv8/start.o
 .rela.rodata.pci_generic_ids
                0x00000000820a7668       0x18 arch/arm/cpu/armv8/start.o
 .rela.rodata.ls_pcie_ids
                0x00000000820a7680       0x18 arch/arm/cpu/armv8/start.o
 .rela.rodata.ls_pcie_ops
                0x00000000820a7698       0x30 arch/arm/cpu/armv8/start.o
 .rela.rodata.sata_ceva_ids
                0x00000000820a76c8       0xc0 arch/arm/cpu/armv8/start.o
 .rela.rodata.if_typename_str
                0x00000000820a7788      0x120 arch/arm/cpu/armv8/start.o
 .rela.rodata.desc_error_list
                0x00000000820a78a8      0x4e0 arch/arm/cpu/armv8/start.o
 .rela.rodata.status_src.8584
                0x00000000820a7d88      0x108 arch/arm/cpu/armv8/start.o
 .rela.rodata.names.10185
                0x00000000820a7e90      0x138 arch/arm/cpu/armv8/start.o
 .rela.rodata.mmc_blk_ops
                0x00000000820a7fc8       0x60 arch/arm/cpu/armv8/start.o
 .rela.rodata.fsl_esdhc_ids
                0x00000000820a8028       0xd8 arch/arm/cpu/armv8/start.o
 .rela.rodata.fsl_esdhc_ops
                0x00000000820a8100       0x48 arch/arm/cpu/armv8/start.o
 .rela.rodata.scsi_blk_ops
                0x00000000820a8148       0x30 arch/arm/cpu/armv8/start.o
 .rela.u_boot_list_2_driver_2_root_driver
                0x00000000820a8178       0x18 arch/arm/cpu/armv8/start.o
 .rela.u_boot_list_2_uclass_2_root
                0x00000000820a8190       0x18 arch/arm/cpu/armv8/start.o
 .rela.u_boot_list_2_driver_2_simple_bus_drv
                0x00000000820a81a8       0x30 arch/arm/cpu/armv8/start.o
 .rela.u_boot_list_2_uclass_2_simple_bus
                0x00000000820a81d8       0x30 arch/arm/cpu/armv8/start.o
 .rela.u_boot_list_2_driver_2_pci_bridge_drv
                0x00000000820a8208       0x48 arch/arm/cpu/armv8/start.o
 .rela.u_boot_list_2_driver_2_pci_generic_drv
                0x00000000820a8250       0x30 arch/arm/cpu/armv8/start.o
 .rela.u_boot_list_2_uclass_2_pci
                0x00000000820a8280       0x78 arch/arm/cpu/armv8/start.o
 .rela.u_boot_list_2_uclass_2_pci_generic
                0x00000000820a82f8       0x18 arch/arm/cpu/armv8/start.o
 .rela.data.ls_pcie_list
                0x00000000820a8310       0x30 arch/arm/cpu/armv8/start.o
 .rela.u_boot_list_2_driver_2_pci_layerscape
                0x00000000820a8340       0x60 arch/arm/cpu/armv8/start.o
 .rela.u_boot_list_2_uclass_2_ahci
                0x00000000820a83a0       0x18 arch/arm/cpu/armv8/start.o
 .rela.data.scsi_ops
                0x00000000820a83b8       0x30 arch/arm/cpu/armv8/start.o
 .rela.u_boot_list_2_driver_2_ahci_scsi
                0x00000000820a83e8       0x30 arch/arm/cpu/armv8/start.o
 .rela.u_boot_list_2_driver_2_ceva_host_blk
                0x00000000820a8418       0x90 arch/arm/cpu/armv8/start.o
 .rela.u_boot_list_2_uclass_2_blk
                0x00000000820a84a8       0x30 arch/arm/cpu/armv8/start.o
 .rela.data.block_cache
                0x00000000820a84d8       0x30 arch/arm/cpu/armv8/start.o
 .rela.data.ifc_cfg_default_boot
                0x00000000820a8508       0x60 arch/arm/cpu/armv8/start.o
 .rela.u_boot_list_2_driver_2_mmc
                0x00000000820a8568       0x18 arch/arm/cpu/armv8/start.o
 .rela.u_boot_list_2_driver_2_mmc_blk
                0x00000000820a8580       0x48 arch/arm/cpu/armv8/start.o
 .rela.u_boot_list_2_uclass_2_mmc
                0x00000000820a85c8       0x18 arch/arm/cpu/armv8/start.o
 .rela.u_boot_list_2_driver_2_fsl_esdhc
                0x00000000820a85e0       0x78 arch/arm/cpu/armv8/start.o
 .rela.u_boot_list_2_uclass_2_scsi
                0x00000000820a8658       0x18 arch/arm/cpu/armv8/start.o
 .rela.u_boot_list_2_driver_2_scsi_blk
                0x00000000820a8670       0x30 arch/arm/cpu/armv8/start.o
 .rela.rodata.CSWTCH.8
                0x00000000820a86a0       0x60 arch/arm/cpu/armv8/start.o
 .rela.u_boot_list_2_i2c_2_mxc0
                0x00000000820a8700       0x90 arch/arm/cpu/armv8/start.o
 .rela.u_boot_list_2_i2c_2_mxc1
                0x00000000820a8790       0x90 arch/arm/cpu/armv8/start.o
 .rela.u_boot_list_2_i2c_2_mxc2
                0x00000000820a8820       0x90 arch/arm/cpu/armv8/start.o
 .rela.u_boot_list_2_i2c_2_mxc3
                0x00000000820a88b0       0x90 arch/arm/cpu/armv8/start.o
 .rela.data.bbt_main_descr
                0x00000000820a8940       0x30 arch/arm/cpu/armv8/start.o
 .rela.data.bbt_main_no_oob_descr
                0x00000000820a8970       0x18 arch/arm/cpu/armv8/start.o
 .rela.data.bbt_mirror_descr
                0x00000000820a8988       0x30 arch/arm/cpu/armv8/start.o
 .rela.data.bbt_mirror_no_oob_descr
                0x00000000820a89b8       0x18 arch/arm/cpu/armv8/start.o
 .rela.data.nand_flash_ids
                0x00000000820a89d0      0x810 arch/arm/cpu/armv8/start.o
 .rela.rodata.spi_flash_std_ids
                0x00000000820a91e0       0x30 arch/arm/cpu/armv8/start.o
 .rela.rodata.spi_flash_std_ops
                0x00000000820a9210       0x60 arch/arm/cpu/armv8/start.o
 .rela.rodata.spi_nor_ids
                0x00000000820a9270      0x2d0 arch/arm/cpu/armv8/start.o
 .rela.u_boot_list_2_uclass_2_spi_nor
                0x00000000820a9540       0x30 arch/arm/cpu/armv8/start.o
 .rela.u_boot_list_2_driver_2_spi_flash_std
                0x00000000820a9570       0x78 arch/arm/cpu/armv8/start.o
 .rela.data.e1000_hw_list
                0x00000000820a95e8       0x30 arch/arm/cpu/armv8/start.o
 .rela.data.genphy_driver
                0x00000000820a9618       0x60 arch/arm/cpu/armv8/start.o
 .rela.data.phy_drivers
                0x00000000820a9678       0x30 arch/arm/cpu/armv8/start.o
 .rela.data.AR8021_driver
                0x00000000820a96a8       0x60 arch/arm/cpu/armv8/start.o
 .rela.data.AR8031_driver
                0x00000000820a9708       0x60 arch/arm/cpu/armv8/start.o
 .rela.data.AR8035_driver
                0x00000000820a9768       0x60 arch/arm/cpu/armv8/start.o
 .rela.data.pmic_list
                0x00000000820a97c8       0x30 arch/arm/cpu/armv8/start.o
 .rela.u_boot_list_2_cmd_2_pmic
                0x00000000820a97f8       0x78 arch/arm/cpu/armv8/start.o
 .rela.u_boot_list_2_env_clbk_2_baudrate
                0x00000000820a9870       0x30 arch/arm/cpu/armv8/start.o
 .rela.data.eserial1_device
                0x00000000820a98a0       0x90 arch/arm/cpu/armv8/start.o
 .rela.data.eserial2_device
                0x00000000820a9930       0x90 arch/arm/cpu/armv8/start.o
 .rela.data.eserial3_device
                0x00000000820a99c0       0x90 arch/arm/cpu/armv8/start.o
 .rela.data.eserial4_device
                0x00000000820a9a50       0x90 arch/arm/cpu/armv8/start.o
 .rela.rodata.fsl_qspi_ids
                0x00000000820a9ae0       0x60 arch/arm/cpu/armv8/start.o
 .rela.rodata.fsl_qspi_ops
                0x00000000820a9b40       0x78 arch/arm/cpu/armv8/start.o
 .rela.u_boot_list_2_driver_2_spi_generic_drv
                0x00000000820a9bb8       0x18 arch/arm/cpu/armv8/start.o
 .rela.u_boot_list_2_uclass_2_spi
                0x00000000820a9bd0       0x78 arch/arm/cpu/armv8/start.o
 .rela.u_boot_list_2_uclass_2_spi_generic
                0x00000000820a9c48       0x18 arch/arm/cpu/armv8/start.o
 .rela.u_boot_list_2_driver_2_fsl_qspi
                0x00000000820a9c60       0x90 arch/arm/cpu/armv8/start.o
 .rela.rodata.usb_dr_modes
                0x00000000820a9cf0       0x60 arch/arm/cpu/armv8/start.o
 .rela.rodata.xhci_dwc3_ids
                0x00000000820a9d50       0x18 arch/arm/cpu/armv8/start.o
 .rela.rodata.xhci_usb_ids
                0x00000000820a9d68       0x18 arch/arm/cpu/armv8/start.o
 .rela.u_boot_list_2_driver_2_usb_dev_generic_drv
                0x00000000820a9d80       0x18 arch/arm/cpu/armv8/start.o
 .rela.u_boot_list_2_uclass_2_usb
                0x00000000820a9d98       0x60 arch/arm/cpu/armv8/start.o
 .rela.u_boot_list_2_uclass_2_usb_dev_generic
                0x00000000820a9df8       0x18 arch/arm/cpu/armv8/start.o
 .rela.data.xhci_usb_ops
                0x00000000820a9e10       0x90 arch/arm/cpu/armv8/start.o
 .rela.u_boot_list_2_driver_2_xhci_dwc3
                0x00000000820a9ea0       0x78 arch/arm/cpu/armv8/start.o
 .rela.u_boot_list_2_driver_2_xhci_fsl
                0x00000000820a9f18       0x78 arch/arm/cpu/armv8/start.o
 .rela.data.env_htab
                0x00000000820a9f90       0x18 arch/arm/cpu/armv8/start.o
 .rela.u_boot_list_2_env_clbk_2_callbacks
                0x00000000820a9fa8       0x30 arch/arm/cpu/armv8/start.o
 .rela.u_boot_list_2_env_clbk_2_flags
                0x00000000820a9fd8       0x30 arch/arm/cpu/armv8/start.o
 .rela.u_boot_list_2_env_driver_2_mmc
                0x00000000820aa008       0x48 arch/arm/cpu/armv8/start.o
 .rela.u_boot_list_2_env_driver_2_sf
                0x00000000820aa050       0x60 arch/arm/cpu/armv8/start.o
 .rela.data.fstypes
                0x00000000820aa0b0      0x390 arch/arm/cpu/armv8/start.o
 .rela.rodata.driver_ops
                0x00000000820aa440       0x48 arch/arm/cpu/armv8/start.o
 .rela.rodata.efi_blk_ops
                0x00000000820aa488       0x30 arch/arm/cpu/armv8/start.o
 .rela.rodata.efi_device_path_to_text
                0x00000000820aa4b8       0x30 arch/arm/cpu/armv8/start.o
 .rela.rodata.efi_device_path_utilities
                0x00000000820aa4e8       0xc0 arch/arm/cpu/armv8/start.o
 .rela.rodata.efi_file_handle_protocol
                0x00000000820aa5a8       0xf0 arch/arm/cpu/armv8/start.o
 .rela.rodata.efi_runtime_detach_list
                0x00000000820aa698      0x180 arch/arm/cpu/armv8/start.o
 .rela.rodata.efi_unicode_collation_protocol
                0x00000000820aa818       0xa8 arch/arm/cpu/armv8/start.o
 .rela.rodata.fdt_errtable
                0x00000000820aa8c0      0x198 arch/arm/cpu/armv8/start.o
 .rela.rodata.smbios_write_funcs
                0x00000000820aaa58       0xa8 arch/arm/cpu/armv8/start.o
 .rela.u_boot_list_2_uclass_2_efi
                0x00000000820aab00       0x48 arch/arm/cpu/armv8/start.o
 .rela.u_boot_list_2_driver_2_efi_blk
                0x00000000820aab48       0x30 arch/arm/cpu/armv8/start.o
 .rela.u_boot_list_2_driver_2_efi_block
                0x00000000820aab78       0x30 arch/arm/cpu/armv8/start.o
 .rela.data.efi_boot_services
                0x00000000820aaba8      0x408 arch/arm/cpu/armv8/start.o
 .rela.data.efi_events
                0x00000000820aafb0       0x30 arch/arm/cpu/armv8/start.o
 .rela.data.efi_obj_list
                0x00000000820aafe0       0x30 arch/arm/cpu/armv8/start.o
 .rela.data.cin_notify_functions
                0x00000000820ab010       0x30 arch/arm/cpu/armv8/start.o
 .rela.data.efi_con_in
                0x00000000820ab040       0x30 arch/arm/cpu/armv8/start.o
 .rela.data.efi_con_in_ex
                0x00000000820ab070       0x78 arch/arm/cpu/armv8/start.o
 .rela.data.efi_con_out
                0x00000000820ab0e8       0xf0 arch/arm/cpu/armv8/start.o
 .rela.data.efi_mem
                0x00000000820ab1d8       0x30 arch/arm/cpu/armv8/start.o
 .rela.data.efi_runtime_mmio
                0x00000000820ab208       0x30 arch/arm/cpu/armv8/start.o
 .rela.u_boot_list_2_env_clbk_2_ethaddr
                0x00000000820ab238       0x30 arch/arm/cpu/armv8/start.o
 .rela.u_boot_list_2_env_clbk_2_gatewayip
                0x00000000820ab268       0x30 arch/arm/cpu/armv8/start.o
 .rela.u_boot_list_2_env_clbk_2_ipaddr
                0x00000000820ab298       0x30 arch/arm/cpu/armv8/start.o
 .rela.u_boot_list_2_env_clbk_2_netmask
                0x00000000820ab2c8       0x30 arch/arm/cpu/armv8/start.o
 .rela.u_boot_list_2_env_clbk_2_nvlan
                0x00000000820ab2f8       0x30 arch/arm/cpu/armv8/start.o
 .rela.u_boot_list_2_env_clbk_2_serverip
                0x00000000820ab328       0x30 arch/arm/cpu/armv8/start.o
 .rela.u_boot_list_2_env_clbk_2_vlan
                0x00000000820ab358       0x30 arch/arm/cpu/armv8/start.o

.rel_dyn_end    0x00000000820ab388        0x0
 *(.__rel_dyn_end)
 .__rel_dyn_end
                0x00000000820ab388        0x0 arch/arm/lib/built-in.o
                0x00000000820ab388                _end = .
                0x00000000820ab388                . = ALIGN (0x8)

.bss_start      0x00000000820ab388        0x0
 *(.__bss_start)
 .__bss_start   0x00000000820ab388        0x0 arch/arm/lib/built-in.o
                0x00000000820ab388                __bss_start

.bss            0x00000000820ab400     0x9768
 *(.bss*)
 .bss.serdes1_prtcl_map
                0x00000000820ab400       0x4e arch/arm/cpu/armv8/built-in.o
 .bss.serdes2_prtcl_map
                0x00000000820ab44e       0x4e arch/arm/cpu/armv8/built-in.o
 .bss.e         0x00000000820ab49c      0x100 board/freescale/common/built-in.o
 .bss.has_been_read
                0x00000000820ab59c        0x4 board/freescale/common/built-in.o
 .bss.bootefi_device_path
                0x00000000820ab5a0        0x8 cmd/built-in.o
 .bss.bootefi_image_path
                0x00000000820ab5a8        0x8 cmd/built-in.o
 .bss.data.8636
                0x00000000820ab5b0      0x400 cmd/built-in.o
 .bss.working_fdt
                0x00000000820ab9b0        0x8 cmd/built-in.o
                0x00000000820ab9b0                working_fdt
 .bss.i2c_dp_last_addr
                0x00000000820ab9b8        0x4 cmd/built-in.o
 .bss.i2c_dp_last_alen
                0x00000000820ab9bc        0x4 cmd/built-in.o
 .bss.i2c_dp_last_chip
                0x00000000820ab9c0        0x4 cmd/built-in.o
 .bss.i2c_mm_last_addr
                0x00000000820ab9c4        0x4 cmd/built-in.o
 .bss.i2c_mm_last_alen
                0x00000000820ab9c8        0x4 cmd/built-in.o
 .bss.i2c_mm_last_chip
                0x00000000820ab9cc        0x4 cmd/built-in.o
 .bss.a_b       0x00000000820ab9d0       0x18 cmd/built-in.o
 .bss.bin_start_address
                0x00000000820ab9e8        0x8 cmd/built-in.o
 .bss.his_eol   0x00000000820ab9f0        0x1 cmd/built-in.o
 .bss.his_pad_char
                0x00000000820ab9f1        0x1 cmd/built-in.o
 *fill*         0x00000000820ab9f2        0x2 
 .bss.his_pad_count
                0x00000000820ab9f4        0x4 cmd/built-in.o
 .bss.his_quote
                0x00000000820ab9f8        0x1 cmd/built-in.o
 *fill*         0x00000000820ab9f9        0x3 
 .bss.k_data_escape
                0x00000000820ab9fc        0x4 cmd/built-in.o
 .bss.k_data_escape_saved
                0x00000000820aba00        0x4 cmd/built-in.o
 *fill*         0x00000000820aba04        0x4 
 .bss.os_data_addr
                0x00000000820aba08        0x8 cmd/built-in.o
 .bss.os_data_addr_saved
                0x00000000820aba10        0x8 cmd/built-in.o
 .bss.os_data_char
                0x00000000820aba18        0x8 cmd/built-in.o
 .bss.os_data_init
                0x00000000820aba20        0x8 cmd/built-in.o
 .bss.os_data_state
                0x00000000820aba28        0x4 cmd/built-in.o
 .bss.os_data_state_saved
                0x00000000820aba2c        0x4 cmd/built-in.o
 .bss.send_parms
                0x00000000820aba30       0x14 cmd/built-in.o
 *fill*         0x00000000820aba44        0x4 
 .bss.send_ptr  0x00000000820aba48        0x8 cmd/built-in.o
 .bss.base_address
                0x00000000820aba50        0x8 cmd/built-in.o
 .bss.dp_last_addr
                0x00000000820aba58        0x8 cmd/built-in.o
 .bss.dp_last_size
                0x00000000820aba60        0x8 cmd/built-in.o
 .bss.mm_last_addr
                0x00000000820aba68        0x8 cmd/built-in.o
 .bss.mm_last_size
                0x00000000820aba70        0x8 cmd/built-in.o
 .bss.last_addr_hi
                0x00000000820aba78        0x8 cmd/built-in.o
 .bss.last_addr_lo
                0x00000000820aba80        0x8 cmd/built-in.o
 .bss.last_data
                0x00000000820aba88        0x8 cmd/built-in.o
 .bss.last_mask
                0x00000000820aba90        0x4 cmd/built-in.o
 .bss.last_op   0x00000000820aba94        0x4 cmd/built-in.o
 .bss.last_reg_hi
                0x00000000820aba98        0x8 cmd/built-in.o
 .bss.last_reg_lo
                0x00000000820abaa0        0x8 cmd/built-in.o
 .bss.last_devad_hi
                0x00000000820abaa8        0x4 cmd/built-in.o
 .bss.last_devad_lo
                0x00000000820abaac        0x4 cmd/built-in.o
 .bss.last.10843
                0x00000000820abab0        0x8 cmd/built-in.o
 .bss.do_getfile
                0x00000000820abab8        0x8 cmd/built-in.o
 .bss.fs_argv   0x00000000820abac0       0x28 cmd/built-in.o
 .bss.is_pxe    0x00000000820abae8        0x1 cmd/built-in.o
 *fill*         0x00000000820abae9        0x7 
 .bss.flash     0x00000000820abaf0        0x8 cmd/built-in.o
 .bss.scsi_curr_dev
                0x00000000820abaf8        0x4 cmd/built-in.o
 .bss.buf.8946  0x00000000820abafc       0x28 common/built-in.o
 .bss.do_repeat
                0x00000000820abb24        0x4 common/built-in.o
 .bss.flag_repeat
                0x00000000820abb28        0x4 common/built-in.o
 *fill*         0x00000000820abb2c        0x4 
 .bss.ifs       0x00000000820abb30        0x8 common/built-in.o
 .bss.last_return_code
                0x00000000820abb38        0x4 common/built-in.o
 .bss.map       0x00000000820abb3c      0x100 common/built-in.o
 .bss.the_command.8746
                0x00000000820abc3c      0x201 common/built-in.o
 *fill*         0x00000000820abe3d        0x3 
 .bss.top_vars  0x00000000820abe40        0x8 common/built-in.o
 .bss.stored_bootdelay
                0x00000000820abe48        0x4 common/built-in.o
 *fill*         0x00000000820abe4c        0x4 
 .bss.monitor_flash_len
                0x00000000820abe50        0x8 common/built-in.o
                0x00000000820abe50                monitor_flash_len
 .bss.images    0x00000000820abe58      0x280 common/built-in.o
                0x00000000820abe58                images
 .bss.current_mii
                0x00000000820ac0d8        0x8 common/built-in.o
 .bss.mii_devs  0x00000000820ac0e0       0x10 common/built-in.o
 .bss.usb_started
                0x00000000820ac0f0        0x1 common/built-in.o
                0x00000000820ac0f0                usb_started
 *fill*         0x00000000820ac0f1        0x3 
 .bss.running.10669
                0x00000000820ac0f4        0x4 common/built-in.o
 .bss.CBWTag    0x00000000820ac0f8        0x4 common/built-in.o
 *fill*         0x00000000820ac0fc        0x4 
 .bss.usb_ccb   0x00000000820ac100      0x100 common/built-in.o
 .bss.usb_max_devs
                0x00000000820ac200        0x4 common/built-in.o
 .bss.console_buffer
                0x00000000820ac204      0x201 common/built-in.o
                0x00000000820ac204                console_buffer
 *fill*         0x00000000820ac405        0x3 
 .bss.hist_add_idx
                0x00000000820ac408        0x4 common/built-in.o
 .bss.hist_lines
                0x00000000820ac40c     0x2814 common/built-in.o
 .bss.hist_list
                0x00000000820aec20       0xa0 common/built-in.o
 .bss.hist_max  0x00000000820aecc0        0x4 common/built-in.o
 .bss.hist_num  0x00000000820aecc4        0x4 common/built-in.o
 .bss.initted.8612
                0x00000000820aecc8        0x4 common/built-in.o
 .bss.ctrlc_disabled
                0x00000000820aeccc        0x4 common/built-in.o
 .bss.ctrlc_was_pressed
                0x00000000820aecd0        0x4 common/built-in.o
 .bss.current_mallinfo
                0x00000000820aecd4       0x28 common/built-in.o
 *fill*         0x00000000820aecfc        0x4 
 .bss.max_sbrked_mem
                0x00000000820aed00        0x8 common/built-in.o
 .bss.max_total_mem
                0x00000000820aed08        0x8 common/built-in.o
 .bss.mem_malloc_brk
                0x00000000820aed10        0x8 common/built-in.o
                0x00000000820aed10                mem_malloc_brk
 .bss.mem_malloc_end
                0x00000000820aed18        0x8 common/built-in.o
                0x00000000820aed18                mem_malloc_end
 .bss.mem_malloc_start
                0x00000000820aed20        0x8 common/built-in.o
                0x00000000820aed20                mem_malloc_start
 .bss.top_pad   0x00000000820aed28        0x8 common/built-in.o
 .bss.devs      0x00000000820aed30       0x70 common/built-in.o
 .bss.stdio_devices
                0x00000000820aeda0       0x18 common/built-in.o
                0x00000000820aeda0                stdio_devices
 .bss.env_complete_buf
                0x00000000820aedb8      0x200 common/built-in.o
 .bss.tmp_buf   0x00000000820aefb8      0x201 common/built-in.o
 *fill*         0x00000000820af1b9        0x7 
 .bss.xyz       0x00000000820af1c0      0x448 common/built-in.o
 *fill*         0x00000000820af608       0x38 
 .bss.tmpbuf    0x00000000820af640      0x800 disk/built-in.o
 .bss.name.8882
                0x00000000820afe40       0x25 disk/built-in.o
 *fill*         0x00000000820afe65        0x3 
 .bss.jr0       0x00000000820afe68       0xc0 drivers/built-in.o
                0x00000000820afe68                jr0
 .bss.sec_offset
                0x00000000820aff28        0x4 drivers/built-in.o
                0x00000000820aff28                sec_offset
 .bss.initialized.10665
                0x00000000820aff2c        0x4 drivers/built-in.o
 .bss.tempbuff  0x00000000820aff30      0x200 drivers/built-in.o
 *fill*         0x00000000820b0130       0x10 
 .bss.tempccb   0x00000000820b0140      0x100 drivers/built-in.o
 .bss.dev_name  0x00000000820b0240        0x8 drivers/mtd/nand/raw/built-in.o
 .bss.initialized.10707
                0x00000000820b0248        0x4 drivers/mtd/nand/raw/built-in.o
 *fill*         0x00000000820b024c        0x4 
 .bss.nand_info
                0x00000000820b0250        0x8 drivers/mtd/nand/raw/built-in.o
 .bss.total_nand_size
                0x00000000820b0258        0x8 drivers/mtd/nand/raw/built-in.o
 .bss.ifc_ctrl  0x00000000820b0260        0x8 drivers/mtd/nand/raw/built-in.o
 *fill*         0x00000000820b0268       0x18 
 .bss.__packet  0x00000000820b0280     0x1000 drivers/net/built-in.o
 .bss.__rx_base
                0x00000000820b1280      0x100 drivers/net/built-in.o
 .bss.__tx_base
                0x00000000820b1380      0x100 drivers/net/built-in.o
 .bss.rx_last   0x00000000820b1480        0x4 drivers/net/built-in.o
 .bss.rx_tail   0x00000000820b1484        0x4 drivers/net/built-in.o
 .bss.tx_tail   0x00000000820b1488        0x4 drivers/net/built-in.o
 .bss.num_controllers
                0x00000000820b148c        0x4 drivers/net/fm/built-in.o
 .bss.muram     0x00000000820b1490       0x20 drivers/net/fm/built-in.o
                0x00000000820b1490                muram
 .bss.serial_current
                0x00000000820b14b0        0x8 drivers/serial/built-in.o
 .bss.serial_devices
                0x00000000820b14b8        0x8 drivers/serial/built-in.o
 .bss.wr_sfaddr.10200
                0x00000000820b14c0        0x4 drivers/spi/built-in.o
 .bss.asynch_allowed
                0x00000000820b14c4        0x1 drivers/usb/host/built-in.o
 *fill*         0x00000000820b14c5        0x3 
 .bss.callback_list
                0x00000000820b14c8        0x8 env/built-in.o
 .bss.flags_list
                0x00000000820b14d0        0x8 env/built-in.o
 .bss.env_flash
                0x00000000820b14d8        0x8 env/built-in.o
 .bss.fs_dev_desc
                0x00000000820b14e0        0x8 fs/built-in.o
 .bss.fs_dev_part
                0x00000000820b14e8        0x4 fs/built-in.o
 *fill*         0x00000000820b14ec        0x4 
 .bss.fs_partition
                0x00000000820b14f0       0x88 fs/built-in.o
 .bss.fs_type   0x00000000820b1578        0x4 fs/built-in.o
 *fill*         0x00000000820b157c        0x4 
 .bss.ext_fs    0x00000000820b1580       0x68 fs/built-in.o
                0x00000000820b1580                ext_fs
 .bss.ext4fs_file
                0x00000000820b15e8        0x8 fs/built-in.o
                0x00000000820b15e8                ext4fs_file
 .bss.ext4fs_indir1_block
                0x00000000820b15f0        0x8 fs/built-in.o
                0x00000000820b15f0                ext4fs_indir1_block
 .bss.ext4fs_indir1_size
                0x00000000820b15f8        0x4 fs/built-in.o
                0x00000000820b15f8                ext4fs_indir1_size
 *fill*         0x00000000820b15fc        0x4 
 .bss.ext4fs_indir2_block
                0x00000000820b1600        0x8 fs/built-in.o
                0x00000000820b1600                ext4fs_indir2_block
 .bss.ext4fs_indir2_size
                0x00000000820b1608        0x4 fs/built-in.o
                0x00000000820b1608                ext4fs_indir2_size
 *fill*         0x00000000820b160c        0x4 
 .bss.ext4fs_indir3_block
                0x00000000820b1610        0x8 fs/built-in.o
                0x00000000820b1610                ext4fs_indir3_block
 .bss.ext4fs_indir3_size
                0x00000000820b1618        0x4 fs/built-in.o
                0x00000000820b1618                ext4fs_indir3_size
 *fill*         0x00000000820b161c        0x4 
 .bss.ext4fs_root
                0x00000000820b1620        0x8 fs/built-in.o
                0x00000000820b1620                ext4fs_root
 .bss.symlinknest
                0x00000000820b1628        0x4 fs/built-in.o
 *fill*         0x00000000820b162c        0x4 
 .bss.part_info
                0x00000000820b1630        0x8 fs/built-in.o
 .bss.part_offset
                0x00000000820b1638        0x8 fs/built-in.o
                0x00000000820b1638                part_offset
 .bss.cur_dev   0x00000000820b1640        0x8 fs/built-in.o
 .bss.cur_part_info
                0x00000000820b1648       0x88 fs/built-in.o
 .bss.rs        0x00000000820b16d0        0x8 lib/built-in.o
 .bss.app_gd    0x00000000820b16d8        0x8 lib/built-in.o
 .bss.efi_gd    0x00000000820b16e0        0x8 lib/built-in.o
 .bss.mono.10890
                0x00000000820b16e8        0x8 lib/built-in.o
 .bss.ret.10794
                0x00000000820b16f0        0x8 lib/built-in.o
 .bss.console_timer_event
                0x00000000820b16f8        0x8 lib/built-in.o
 .bss.key_available
                0x00000000820b1700        0x1 lib/built-in.o
 *fill*         0x00000000820b1701        0x3 
 .bss.next_key  0x00000000820b1704        0xc lib/built-in.o
 .bss.efi_memory_map_key
                0x00000000820b1710        0x8 lib/built-in.o
                0x00000000820b1710                efi_memory_map_key
 .bss.efi_variables_list
                0x00000000820b1718        0x8 lib/built-in.o
 .bss.watchdog_timer_event
                0x00000000820b1720        0x8 lib/built-in.o
 .bss.dhcp_ack  0x00000000820b1728        0x8 lib/built-in.o
 .bss.network_timer_event
                0x00000000820b1730        0x8 lib/built-in.o
 .bss.new_rx_packet
                0x00000000820b1738        0x1 lib/built-in.o
 *fill*         0x00000000820b1739        0x7 
 .bss.new_tx_packet
                0x00000000820b1740        0x8 lib/built-in.o
 .bss.transmit_buffer
                0x00000000820b1748        0x8 lib/built-in.o
 .bss.wait_for_packet
                0x00000000820b1750        0x8 lib/built-in.o
 .bss.errno     0x00000000820b1758        0x4 lib/built-in.o
                0x00000000820b1758                errno
 .bss.local.10480
                0x00000000820b175c       0x16 lib/built-in.o
 *fill*         0x00000000820b1772        0x6 
 .bss.arp_tx_packet
                0x00000000820b1778        0x8 net/built-in.o
                0x00000000820b1778                arp_tx_packet
 .bss.arp_tx_packet_buf
                0x00000000820b1780      0x640 net/built-in.o
 .bss.arp_wait_packet_ethaddr
                0x00000000820b1dc0        0x8 net/built-in.o
                0x00000000820b1dc0                arp_wait_packet_ethaddr
 .bss.arp_wait_timer_start
                0x00000000820b1dc8        0x8 net/built-in.o
                0x00000000820b1dc8                arp_wait_timer_start
 .bss.arp_wait_try
                0x00000000820b1dd0        0x4 net/built-in.o
                0x00000000820b1dd0                arp_wait_try
 .bss.arp_wait_tx_packet_size
                0x00000000820b1dd4        0x4 net/built-in.o
                0x00000000820b1dd4                arp_wait_tx_packet_size
 .bss.net_arp_wait_packet_ip
                0x00000000820b1dd8        0x4 net/built-in.o
                0x00000000820b1dd8                net_arp_wait_packet_ip
 .bss.net_arp_wait_reply_ip
                0x00000000820b1ddc        0x4 net/built-in.o
 .bss.bootp_ids
                0x00000000820b1de0       0x10 net/built-in.o
                0x00000000820b1de0                bootp_ids
 .bss.bootp_num_ids
                0x00000000820b1df0        0x4 net/built-in.o
                0x00000000820b1df0                bootp_num_ids
 *fill*         0x00000000820b1df4        0x4 
 .bss.bootp_start
                0x00000000820b1df8        0x8 net/built-in.o
                0x00000000820b1df8                bootp_start
 .bss.bootp_timeout
                0x00000000820b1e00        0x8 net/built-in.o
                0x00000000820b1e00                bootp_timeout
 .bss.bootp_try
                0x00000000820b1e08        0x4 net/built-in.o
                0x00000000820b1e08                bootp_try
 .bss.dhcp_leasetime
                0x00000000820b1e0c        0x4 net/built-in.o
 .bss.dhcp_option_overload
                0x00000000820b1e10        0x1 net/built-in.o
 *fill*         0x00000000820b1e11        0x3 
 .bss.dhcp_server_ip
                0x00000000820b1e14        0x4 net/built-in.o
 .bss.dhcp_state
                0x00000000820b1e18        0x4 net/built-in.o
 .bss.net_hostname
                0x00000000820b1e1c       0x20 net/built-in.o
                0x00000000820b1e1c                net_hostname
 .bss.net_nis_domain
                0x00000000820b1e3c       0x20 net/built-in.o
                0x00000000820b1e3c                net_nis_domain
 .bss.net_root_path
                0x00000000820b1e5c       0x40 net/built-in.o
                0x00000000820b1e5c                net_root_path
 *fill*         0x00000000820b1e9c        0x4 
 .bss.time_taken_max
                0x00000000820b1ea0        0x8 net/built-in.o
 .bss.eth_current
                0x00000000820b1ea8        0x8 net/built-in.o
                0x00000000820b1ea8                eth_current
 .bss.eth_devices
                0x00000000820b1eb0        0x8 net/built-in.o
 .bss.index.10358
                0x00000000820b1eb8        0x4 net/built-in.o
 *fill*         0x00000000820b1ebc        0x4 
 .bss.act.10388
                0x00000000820b1ec0        0x8 net/built-in.o
 .bss.env_changed_id.10389
                0x00000000820b1ec8        0x4 net/built-in.o
 *fill*         0x00000000820b1ecc        0x4 
 .bss.first_failed.10383
                0x00000000820b1ed0        0x8 net/built-in.o
 .bss.arp_packet_handler
                0x00000000820b1ed8        0x8 net/built-in.o
 .bss.net_boot_file_expected_size_in_blocks
                0x00000000820b1ee0        0x4 net/built-in.o
                0x00000000820b1ee0                net_boot_file_expected_size_in_blocks
 .bss.net_boot_file_name
                0x00000000820b1ee4      0x400 net/built-in.o
                0x00000000820b1ee4                net_boot_file_name
 .bss.net_boot_file_name_explicit
                0x00000000820b22e4        0x1 net/built-in.o
                0x00000000820b22e4                net_boot_file_name_explicit
 *fill*         0x00000000820b22e5        0x3 
 .bss.net_boot_file_size
                0x00000000820b22e8        0x4 net/built-in.o
                0x00000000820b22e8                net_boot_file_size
 .bss.net_dev_exists
                0x00000000820b22ec        0x4 net/built-in.o
 .bss.net_dns_server
                0x00000000820b22f0        0x4 net/built-in.o
                0x00000000820b22f0                net_dns_server
 .bss.net_ethaddr
                0x00000000820b22f4        0x6 net/built-in.o
                0x00000000820b22f4                net_ethaddr
 *fill*         0x00000000820b22fa        0x2 
 .bss.net_gateway
                0x00000000820b22fc        0x4 net/built-in.o
                0x00000000820b22fc                net_gateway
 .bss.net_ip    0x00000000820b2300        0x4 net/built-in.o
                0x00000000820b2300                net_ip
 .bss.net_ip_id
                0x00000000820b2304        0x4 net/built-in.o
 .bss.net_netmask
                0x00000000820b2308        0x4 net/built-in.o
                0x00000000820b2308                net_netmask
 .bss.net_null_ethaddr
                0x00000000820b230c        0x6 net/built-in.o
                0x00000000820b230c                net_null_ethaddr
 .bss.net_pkt_buf
                0x00000000820b2312     0x1e40 net/built-in.o
 *fill*         0x00000000820b4152        0x2 
 .bss.net_restart_wrap
                0x00000000820b4154        0x4 net/built-in.o
                0x00000000820b4154                net_restart_wrap
 .bss.net_restarted
                0x00000000820b4158        0x4 net/built-in.o
 *fill*         0x00000000820b415c        0x4 
 .bss.net_rx_packet
                0x00000000820b4160        0x8 net/built-in.o
                0x00000000820b4160                net_rx_packet
 .bss.net_rx_packet_len
                0x00000000820b4168        0x4 net/built-in.o
                0x00000000820b4168                net_rx_packet_len
 *fill*         0x00000000820b416c        0x4 
 .bss.net_rx_packets
                0x00000000820b4170       0x20 net/built-in.o
                0x00000000820b4170                net_rx_packets
 .bss.net_server_ethaddr
                0x00000000820b4190        0x6 net/built-in.o
                0x00000000820b4190                net_server_ethaddr
 *fill*         0x00000000820b4196        0x2 
 .bss.net_server_ip
                0x00000000820b4198        0x4 net/built-in.o
                0x00000000820b4198                net_server_ip
 .bss.net_state
                0x00000000820b419c        0x4 net/built-in.o
                0x00000000820b419c                net_state
 .bss.net_try_count
                0x00000000820b41a0        0x4 net/built-in.o
 *fill*         0x00000000820b41a4        0x4 
 .bss.net_tx_packet
                0x00000000820b41a8        0x8 net/built-in.o
                0x00000000820b41a8                net_tx_packet
 .bss.push_packet
                0x00000000820b41b0        0x8 net/built-in.o
                0x00000000820b41b0                push_packet
 .bss.time_delta
                0x00000000820b41b8        0x8 net/built-in.o
 .bss.time_handler
                0x00000000820b41c0        0x8 net/built-in.o
 .bss.time_start
                0x00000000820b41c8       0x10 net/built-in.o
 .bss.udp_packet_handler
                0x00000000820b41d8        0x8 net/built-in.o
 .bss.dirfh     0x00000000820b41e0       0x20 net/built-in.o
 .bss.filefh    0x00000000820b4200       0x40 net/built-in.o
 .bss.filefh3_length
                0x00000000820b4240        0x4 net/built-in.o
 .bss.fs_mounted
                0x00000000820b4244        0x4 net/built-in.o
 .bss.nfs_download_state
                0x00000000820b4248        0x4 net/built-in.o
 *fill*         0x00000000820b424c        0x4 
 .bss.nfs_filename
                0x00000000820b4250        0x8 net/built-in.o
 .bss.nfs_len   0x00000000820b4258        0x4 net/built-in.o
 .bss.nfs_our_port
                0x00000000820b425c        0x4 net/built-in.o
 .bss.nfs_path  0x00000000820b4260        0x8 net/built-in.o
 .bss.nfs_path_buff
                0x00000000820b4268      0x800 net/built-in.o
 .bss.nfs_server_ip
                0x00000000820b4a68        0x4 net/built-in.o
 .bss.nfs_server_mount_port
                0x00000000820b4a6c        0x4 net/built-in.o
 .bss.nfs_server_port
                0x00000000820b4a70        0x4 net/built-in.o
 .bss.nfs_state
                0x00000000820b4a74        0x4 net/built-in.o
 .bss.nfs_timeout_count
                0x00000000820b4a78        0x4 net/built-in.o
 *fill*         0x00000000820b4a7c        0x4 
 .bss.rpc_id    0x00000000820b4a80        0x8 net/built-in.o
 .bss.net_ping_ip
                0x00000000820b4a88        0x4 net/built-in.o
                0x00000000820b4a88                net_ping_ip
 .bss.ping_seq_number
                0x00000000820b4a8c        0x2 net/built-in.o
 .bss.default_filename
                0x00000000820b4a8e        0xd net/built-in.o
 *fill*         0x00000000820b4a9b        0x5 
 .bss.tftp_block_wrap
                0x00000000820b4aa0        0x8 net/built-in.o
 .bss.tftp_block_wrap_offset
                0x00000000820b4aa8        0x8 net/built-in.o
 .bss.tftp_cur_block
                0x00000000820b4ab0        0x8 net/built-in.o
 .bss.tftp_filename
                0x00000000820b4ab8       0x80 net/built-in.o
 .bss.tftp_load_addr
                0x00000000820b4b38        0x8 net/built-in.o
 .bss.tftp_load_size
                0x00000000820b4b40        0x8 net/built-in.o
 .bss.tftp_our_port
                0x00000000820b4b48        0x4 net/built-in.o
 *fill*         0x00000000820b4b4c        0x4 
 .bss.tftp_prev_block
                0x00000000820b4b50        0x8 net/built-in.o
 .bss.tftp_remote_ip
                0x00000000820b4b58        0x4 net/built-in.o
 .bss.tftp_remote_port
                0x00000000820b4b5c        0x4 net/built-in.o
 .bss.tftp_state
                0x00000000820b4b60        0x4 net/built-in.o
 .bss.timeout_count
                0x00000000820b4b64        0x4 net/built-in.o
                0x00000000820b4b68                . = ALIGN (0x8)

.dynbss         0x00000000820b4b68        0x0
 .dynbss        0x00000000820b4b68        0x0 arch/arm/cpu/armv8/start.o

.bss_end        0x00000000820b4b68        0x0
 *(.__bss_end)
 .__bss_end     0x00000000820b4b68        0x0 arch/arm/lib/built-in.o
                0x00000000820b4b68                __bss_end

/DISCARD/
 *(.dynsym)
 *(.dynstr*)
 *(.dynamic*)
 *(.plt*)
 *(.interp*)
 *(.gnu*)
LOAD arch/arm/cpu/armv8/start.o
START GROUP
LOAD arch/arm/cpu/built-in.o
LOAD arch/arm/cpu/armv8/built-in.o
LOAD arch/arm/lib/built-in.o
LOAD board/freescale/common/built-in.o
LOAD board/freescale/ls1046afrwy/built-in.o
LOAD cmd/built-in.o
LOAD common/built-in.o
LOAD disk/built-in.o
LOAD drivers/built-in.o
LOAD drivers/ddr/fsl/built-in.o
LOAD drivers/dma/built-in.o
LOAD drivers/gpio/built-in.o
LOAD drivers/i2c/built-in.o
LOAD drivers/mtd/built-in.o
LOAD drivers/mtd/nand/raw/built-in.o
LOAD drivers/mtd/onenand/built-in.o
LOAD drivers/mtd/spi/built-in.o
LOAD drivers/net/built-in.o
LOAD drivers/net/fm/built-in.o
LOAD drivers/net/phy/built-in.o
LOAD drivers/power/built-in.o
LOAD drivers/power/battery/built-in.o
LOAD drivers/power/domain/built-in.o
LOAD drivers/power/fuel_gauge/built-in.o
LOAD drivers/power/mfd/built-in.o
LOAD drivers/power/pmic/built-in.o
LOAD drivers/power/regulator/built-in.o
LOAD drivers/serial/built-in.o
LOAD drivers/spi/built-in.o
LOAD drivers/usb/common/built-in.o
LOAD drivers/usb/dwc3/built-in.o
LOAD drivers/usb/emul/built-in.o
LOAD drivers/usb/eth/built-in.o
LOAD drivers/usb/host/built-in.o
LOAD drivers/usb/musb-new/built-in.o
LOAD drivers/usb/musb/built-in.o
LOAD drivers/usb/phy/built-in.o
LOAD drivers/usb/ulpi/built-in.o
LOAD env/built-in.o
LOAD fs/built-in.o
LOAD lib/built-in.o
LOAD net/built-in.o
END GROUP
LOAD /usr/lib/gcc-cross/aarch64-linux-gnu/7/libgcc.a
OUTPUT(u-boot elf64-littleaarch64)

.debug_line     0x0000000000000000    0x6aa64
 .debug_line    0x0000000000000000       0xd3 arch/arm/cpu/armv8/start.o
 .debug_line    0x00000000000000d3     0x5a0d arch/arm/cpu/armv8/built-in.o
 .debug_line    0x0000000000005ae0     0x20ed arch/arm/lib/built-in.o
 .debug_line    0x0000000000007bcd     0x11b5 board/freescale/common/built-in.o
 .debug_line    0x0000000000008d82      0xfc1 board/freescale/ls1046afrwy/built-in.o
 .debug_line    0x0000000000009d43     0xe475 cmd/built-in.o
 .debug_line    0x00000000000181b8     0xd401 common/built-in.o
 .debug_line    0x00000000000255b9     0x1a2c disk/built-in.o
 .debug_line    0x0000000000026fe5     0xf0ec drivers/built-in.o
 .debug_line    0x00000000000360d1     0x2f82 drivers/ddr/fsl/built-in.o
 .debug_line    0x0000000000039053      0xb66 drivers/i2c/built-in.o
 .debug_line    0x0000000000039bb9     0x105d drivers/mtd/built-in.o
 .debug_line    0x000000000003ac16     0x47e8 drivers/mtd/nand/raw/built-in.o
 .debug_line    0x000000000003f3fe     0x194f drivers/mtd/spi/built-in.o
 .debug_line    0x0000000000040d4d     0x18f9 drivers/net/built-in.o
 .debug_line    0x0000000000042646     0x348f drivers/net/fm/built-in.o
 .debug_line    0x0000000000045ad5      0xdf1 drivers/net/phy/built-in.o
 .debug_line    0x00000000000468c6      0x8e2 drivers/power/built-in.o
 .debug_line    0x00000000000471a8      0x3bc drivers/power/pmic/built-in.o
 .debug_line    0x0000000000047564     0x1000 drivers/serial/built-in.o
 .debug_line    0x0000000000048564     0x12e5 drivers/spi/built-in.o
 .debug_line    0x0000000000049849      0xba7 drivers/usb/common/built-in.o
 .debug_line    0x000000000004a3f0     0x2c3f drivers/usb/host/built-in.o
 .debug_line    0x000000000004d02f     0x2029 env/built-in.o
 .debug_line    0x000000000004f058     0x265e fs/built-in.o
 .debug_line    0x00000000000516b6    0x159b7 lib/built-in.o
 .debug_line    0x000000000006706d     0x39f7 net/built-in.o

.debug_info     0x0000000000000000   0x2d8e89
 .debug_info    0x0000000000000000       0x2e arch/arm/cpu/armv8/start.o
 .debug_info    0x000000000000002e    0x224ad arch/arm/cpu/armv8/built-in.o
 .debug_info    0x00000000000224db     0xcb1d arch/arm/lib/built-in.o
 .debug_info    0x000000000002eff8     0x68d5 board/freescale/common/built-in.o
 .debug_info    0x00000000000358cd     0x6bab board/freescale/ls1046afrwy/built-in.o
 .debug_info    0x000000000003c478    0x6234a cmd/built-in.o
 .debug_info    0x000000000009e7c2    0x54e39 common/built-in.o
 .debug_info    0x00000000000f35fb     0x9681 disk/built-in.o
 .debug_info    0x00000000000fcc7c    0x63460 drivers/built-in.o
 .debug_info    0x00000000001600dc    0x15b82 drivers/ddr/fsl/built-in.o
 .debug_info    0x0000000000175c5e     0x50e0 drivers/i2c/built-in.o
 .debug_info    0x000000000017ad3e     0x6656 drivers/mtd/built-in.o
 .debug_info    0x0000000000181394    0x22976 drivers/mtd/nand/raw/built-in.o
 .debug_info    0x00000000001a3d0a     0xc0ff drivers/mtd/spi/built-in.o
 .debug_info    0x00000000001afe09     0xc910 drivers/net/built-in.o
 .debug_info    0x00000000001bc719    0x19469 drivers/net/fm/built-in.o
 .debug_info    0x00000000001d5b82     0x5e9c drivers/net/phy/built-in.o
 .debug_info    0x00000000001dba1e     0x3a91 drivers/power/built-in.o
 .debug_info    0x00000000001df4af     0x18ae drivers/power/pmic/built-in.o
 .debug_info    0x00000000001e0d5d     0x67a2 drivers/serial/built-in.o
 .debug_info    0x00000000001e74ff     0x94f6 drivers/spi/built-in.o
 .debug_info    0x00000000001f09f5     0x3c7a drivers/usb/common/built-in.o
 .debug_info    0x00000000001f466f    0x1704a drivers/usb/host/built-in.o
 .debug_info    0x000000000020b6b9     0xd0b1 env/built-in.o
 .debug_info    0x000000000021876a     0xee5e fs/built-in.o
 .debug_info    0x00000000002275c8    0x9a212 lib/built-in.o
 .debug_info    0x00000000002c17da    0x176af net/built-in.o

.debug_abbrev   0x0000000000000000    0x4a7d5
 .debug_abbrev  0x0000000000000000       0x14 arch/arm/cpu/armv8/start.o
 .debug_abbrev  0x0000000000000014     0x3991 arch/arm/cpu/armv8/built-in.o
 .debug_abbrev  0x00000000000039a5     0x176a arch/arm/lib/built-in.o
 .debug_abbrev  0x000000000000510f      0xd4f board/freescale/common/built-in.o
 .debug_abbrev  0x0000000000005e5e      0xb14 board/freescale/ls1046afrwy/built-in.o
 .debug_abbrev  0x0000000000006972     0xae31 cmd/built-in.o
 .debug_abbrev  0x00000000000117a3     0x8e7b common/built-in.o
 .debug_abbrev  0x000000000001a61e     0x1407 disk/built-in.o
 .debug_abbrev  0x000000000001ba25     0xaf7b drivers/built-in.o
 .debug_abbrev  0x00000000000269a0     0x1f16 drivers/ddr/fsl/built-in.o
 .debug_abbrev  0x00000000000288b6      0xa01 drivers/i2c/built-in.o
 .debug_abbrev  0x00000000000292b7      0xa18 drivers/mtd/built-in.o
 .debug_abbrev  0x0000000000029ccf     0x235a drivers/mtd/nand/raw/built-in.o
 .debug_abbrev  0x000000000002c029      0xed6 drivers/mtd/spi/built-in.o
 .debug_abbrev  0x000000000002ceff      0x9e4 drivers/net/built-in.o
 .debug_abbrev  0x000000000002d8e3     0x26ce drivers/net/fm/built-in.o
 .debug_abbrev  0x000000000002ffb1      0x8c3 drivers/net/phy/built-in.o
 .debug_abbrev  0x0000000000030874      0x756 drivers/power/built-in.o
 .debug_abbrev  0x0000000000030fca      0x2ce drivers/power/pmic/built-in.o
 .debug_abbrev  0x0000000000031298      0xb8d drivers/serial/built-in.o
 .debug_abbrev  0x0000000000031e25      0xde1 drivers/spi/built-in.o
 .debug_abbrev  0x0000000000032c06      0x888 drivers/usb/common/built-in.o
 .debug_abbrev  0x000000000003348e     0x2093 drivers/usb/host/built-in.o
 .debug_abbrev  0x0000000000035521     0x1b95 env/built-in.o
 .debug_abbrev  0x00000000000370b6     0x1a20 fs/built-in.o
 .debug_abbrev  0x0000000000038ad6     0xf4d2 lib/built-in.o
 .debug_abbrev  0x0000000000047fa8     0x282d net/built-in.o

.debug_aranges  0x0000000000000000     0xdb50
 .debug_aranges
                0x0000000000000000       0x30 arch/arm/cpu/armv8/start.o
 .debug_aranges
                0x0000000000000030      0xc30 arch/arm/cpu/armv8/built-in.o
 .debug_aranges
                0x0000000000000c60      0x430 arch/arm/lib/built-in.o
 .debug_aranges
                0x0000000000001090      0x130 board/freescale/common/built-in.o
 .debug_aranges
                0x00000000000011c0      0x190 board/freescale/ls1046afrwy/built-in.o
 .debug_aranges
                0x0000000000001350     0x1440 cmd/built-in.o
 .debug_aranges
                0x0000000000002790     0x1fb0 common/built-in.o
 .debug_aranges
                0x0000000000004740      0x320 disk/built-in.o
 .debug_aranges
                0x0000000000004a60     0x2170 drivers/built-in.o
 .debug_aranges
                0x0000000000006bd0      0x420 drivers/ddr/fsl/built-in.o
 .debug_aranges
                0x0000000000006ff0      0x220 drivers/i2c/built-in.o
 .debug_aranges
                0x0000000000007210      0x350 drivers/mtd/built-in.o
 .debug_aranges
                0x0000000000007560      0x7e0 drivers/mtd/nand/raw/built-in.o
 .debug_aranges
                0x0000000000007d40      0x2a0 drivers/mtd/spi/built-in.o
 .debug_aranges
                0x0000000000007fe0      0x370 drivers/net/built-in.o
 .debug_aranges
                0x0000000000008350      0x4c0 drivers/net/fm/built-in.o
 .debug_aranges
                0x0000000000008810      0x1e0 drivers/net/phy/built-in.o
 .debug_aranges
                0x00000000000089f0       0xc0 drivers/power/built-in.o
 .debug_aranges
                0x0000000000008ab0       0x30 drivers/power/pmic/built-in.o
 .debug_aranges
                0x0000000000008ae0      0x3f0 drivers/serial/built-in.o
 .debug_aranges
                0x0000000000008ed0      0x2b0 drivers/spi/built-in.o
 .debug_aranges
                0x0000000000009180      0x100 drivers/usb/common/built-in.o
 .debug_aranges
                0x0000000000009280      0x550 drivers/usb/host/built-in.o
 .debug_aranges
                0x00000000000097d0      0x390 env/built-in.o
 .debug_aranges
                0x0000000000009b60      0x5b0 fs/built-in.o
 .debug_aranges
                0x000000000000a110     0x3290 lib/built-in.o
 .debug_aranges
                0x000000000000d3a0      0x7b0 net/built-in.o

.debug_str      0x0000000000000000    0x2f6e9
 .debug_str     0x0000000000000000       0x8a arch/arm/cpu/armv8/start.o
 .debug_str     0x000000000000008a     0x5dfb arch/arm/cpu/armv8/built-in.o
                                      0x19b8f (size before relaxing)
 .debug_str     0x0000000000005e85     0x141c arch/arm/lib/built-in.o
                                       0xafc0 (size before relaxing)
 .debug_str     0x00000000000072a1      0xf02 board/freescale/common/built-in.o
                                       0x62a7 (size before relaxing)
 .debug_str     0x00000000000081a3      0x5b6 board/freescale/ls1046afrwy/built-in.o
                                       0x54be (size before relaxing)
 .debug_str     0x0000000000008759     0x6be1 cmd/built-in.o
                                      0x460a5 (size before relaxing)
 .debug_str     0x000000000000f33a     0x4fb8 common/built-in.o
                                      0x379c7 (size before relaxing)
 .debug_str     0x00000000000142f2      0xa6e disk/built-in.o
                                       0x56e5 (size before relaxing)
 .debug_str     0x0000000000014d60     0x6654 drivers/built-in.o
                                      0x417f0 (size before relaxing)
 .debug_str     0x000000000001b3b4     0x19ad drivers/ddr/fsl/built-in.o
                                       0xd417 (size before relaxing)
 .debug_str     0x000000000001cd61      0x33c drivers/i2c/built-in.o
                                       0x2e60 (size before relaxing)
 .debug_str     0x000000000001d09d      0xb85 drivers/mtd/built-in.o
                                       0x3cb3 (size before relaxing)
 .debug_str     0x000000000001dc22     0x1cc9 drivers/mtd/nand/raw/built-in.o
                                      0x12b1f (size before relaxing)
 .debug_str     0x000000000001f8eb      0xba1 drivers/mtd/spi/built-in.o
                                       0x7ab0 (size before relaxing)
 .debug_str     0x000000000002048c     0x149c drivers/net/built-in.o
                                       0x476b (size before relaxing)
 .debug_str     0x0000000000021928     0x1587 drivers/net/fm/built-in.o
                                      0x12d0f (size before relaxing)
 .debug_str     0x0000000000022eaf      0x2fc drivers/net/phy/built-in.o
                                       0x36f2 (size before relaxing)
 .debug_str     0x00000000000231ab      0x169 drivers/power/built-in.o
                                       0x2b18 (size before relaxing)
 .debug_str     0x0000000000023314       0x70 drivers/power/pmic/built-in.o
                                       0x198b (size before relaxing)
 .debug_str     0x0000000000023384      0x683 drivers/serial/built-in.o
                                       0x48dc (size before relaxing)
 .debug_str     0x0000000000023a07      0x5e0 drivers/spi/built-in.o
                                       0x4f01 (size before relaxing)
 .debug_str     0x0000000000023fe7      0x3f5 drivers/usb/common/built-in.o
                                       0x3238 (size before relaxing)
 .debug_str     0x00000000000243dc     0x188d drivers/usb/host/built-in.o
                                       0xd3e0 (size before relaxing)
 .debug_str     0x0000000000025c69      0x868 env/built-in.o
                                       0xa2cd (size before relaxing)
 .debug_str     0x00000000000264d1      0xf6e fs/built-in.o
                                       0x94c5 (size before relaxing)
 .debug_str     0x000000000002743f     0x6e22 lib/built-in.o
                                      0x61206 (size before relaxing)
 .debug_str     0x000000000002e261     0x1488 net/built-in.o
                                      0x11082 (size before relaxing)

.comment        0x0000000000000000       0x30
 .comment       0x0000000000000000       0x30 arch/arm/cpu/armv8/built-in.o
                                        0x310 (size before relaxing)
 .comment       0x0000000000000030      0x1b9 arch/arm/lib/built-in.o
 .comment       0x0000000000000030       0xc4 board/freescale/common/built-in.o
 .comment       0x0000000000000030       0x93 board/freescale/ls1046afrwy/built-in.o
 .comment       0x0000000000000030      0x961 cmd/built-in.o
 .comment       0x0000000000000030      0x682 common/built-in.o
 .comment       0x0000000000000030       0xc4 disk/built-in.o
 .comment       0x0000000000000030      0x83b drivers/built-in.o
 .comment       0x0000000000000030      0x188 drivers/ddr/fsl/built-in.o
 .comment       0x0000000000000030       0x62 drivers/i2c/built-in.o
 .comment       0x0000000000000030       0x62 drivers/mtd/built-in.o
 .comment       0x0000000000000030      0x188 drivers/mtd/nand/raw/built-in.o
 .comment       0x0000000000000030       0xc4 drivers/mtd/spi/built-in.o
 .comment       0x0000000000000030       0x62 drivers/net/built-in.o
 .comment       0x0000000000000030      0x1ea drivers/net/fm/built-in.o
 .comment       0x0000000000000030       0x62 drivers/net/phy/built-in.o
 .comment       0x0000000000000030       0x62 drivers/power/built-in.o
 .comment       0x0000000000000030       0x31 drivers/power/pmic/built-in.o
 .comment       0x0000000000000030       0x93 drivers/serial/built-in.o
 .comment       0x0000000000000030       0x93 drivers/spi/built-in.o
 .comment       0x0000000000000030       0x93 drivers/usb/common/built-in.o
 .comment       0x0000000000000030      0x126 drivers/usb/host/built-in.o
 .comment       0x0000000000000030      0x157 env/built-in.o
 .comment       0x0000000000000030      0x126 fs/built-in.o
 .comment       0x0000000000000030      0xdc8 lib/built-in.o
 .comment       0x0000000000000030      0x1b9 net/built-in.o

.note.GNU-stack
                0x0000000000000000        0x0
 .note.GNU-stack
                0x0000000000000000        0x0 arch/arm/cpu/armv8/built-in.o
 .note.GNU-stack
                0x0000000000000000        0x0 arch/arm/lib/built-in.o
 .note.GNU-stack
                0x0000000000000000        0x0 board/freescale/common/built-in.o
 .note.GNU-stack
                0x0000000000000000        0x0 board/freescale/ls1046afrwy/built-in.o
 .note.GNU-stack
                0x0000000000000000        0x0 cmd/built-in.o
 .note.GNU-stack
                0x0000000000000000        0x0 common/built-in.o
 .note.GNU-stack
                0x0000000000000000        0x0 disk/built-in.o
 .note.GNU-stack
                0x0000000000000000        0x0 drivers/built-in.o
 .note.GNU-stack
                0x0000000000000000        0x0 drivers/ddr/fsl/built-in.o
 .note.GNU-stack
                0x0000000000000000        0x0 drivers/i2c/built-in.o
 .note.GNU-stack
                0x0000000000000000        0x0 drivers/mtd/built-in.o
 .note.GNU-stack
                0x0000000000000000        0x0 drivers/mtd/nand/raw/built-in.o
 .note.GNU-stack
                0x0000000000000000        0x0 drivers/mtd/spi/built-in.o
 .note.GNU-stack
                0x0000000000000000        0x0 drivers/net/built-in.o
 .note.GNU-stack
                0x0000000000000000        0x0 drivers/net/fm/built-in.o
 .note.GNU-stack
                0x0000000000000000        0x0 drivers/net/phy/built-in.o
 .note.GNU-stack
                0x0000000000000000        0x0 drivers/power/built-in.o
 .note.GNU-stack
                0x0000000000000000        0x0 drivers/power/pmic/built-in.o
 .note.GNU-stack
                0x0000000000000000        0x0 drivers/serial/built-in.o
 .note.GNU-stack
                0x0000000000000000        0x0 drivers/spi/built-in.o
 .note.GNU-stack
                0x0000000000000000        0x0 drivers/usb/common/built-in.o
 .note.GNU-stack
                0x0000000000000000        0x0 drivers/usb/host/built-in.o
 .note.GNU-stack
                0x0000000000000000        0x0 env/built-in.o
 .note.GNU-stack
                0x0000000000000000        0x0 fs/built-in.o
 .note.GNU-stack
                0x0000000000000000        0x0 lib/built-in.o
 .note.GNU-stack
                0x0000000000000000        0x0 net/built-in.o

.debug_frame    0x0000000000000000    0x22de8
 .debug_frame   0x0000000000000000     0x1740 arch/arm/cpu/armv8/built-in.o
 .debug_frame   0x0000000000001740      0x558 arch/arm/lib/built-in.o
 .debug_frame   0x0000000000001c98      0x270 board/freescale/common/built-in.o
 .debug_frame   0x0000000000001f08      0x358 board/freescale/ls1046afrwy/built-in.o
 .debug_frame   0x0000000000002260     0x3318 cmd/built-in.o
 .debug_frame   0x0000000000005578     0x5780 common/built-in.o
 .debug_frame   0x000000000000acf8      0x9c8 disk/built-in.o
 .debug_frame   0x000000000000b6c0     0x53e0 drivers/built-in.o
 .debug_frame   0x0000000000010aa0      0x9d8 drivers/ddr/fsl/built-in.o
 .debug_frame   0x0000000000011478      0x588 drivers/i2c/built-in.o
 .debug_frame   0x0000000000011a00      0x7e8 drivers/mtd/built-in.o
 .debug_frame   0x00000000000121e8     0x18c0 drivers/mtd/nand/raw/built-in.o
 .debug_frame   0x0000000000013aa8      0x6a0 drivers/mtd/spi/built-in.o
 .debug_frame   0x0000000000014148      0x948 drivers/net/built-in.o
 .debug_frame   0x0000000000014a90      0x988 drivers/net/fm/built-in.o
 .debug_frame   0x0000000000015418      0x4f8 drivers/net/phy/built-in.o
 .debug_frame   0x0000000000015910      0x1d0 drivers/power/built-in.o
 .debug_frame   0x0000000000015ae0       0x40 drivers/power/pmic/built-in.o
 .debug_frame   0x0000000000015b20      0x7c8 drivers/serial/built-in.o
 .debug_frame   0x00000000000162e8      0x6e8 drivers/spi/built-in.o
 .debug_frame   0x00000000000169d0      0x300 drivers/usb/common/built-in.o
 .debug_frame   0x0000000000016cd0      0xe18 drivers/usb/host/built-in.o
 .debug_frame   0x0000000000017ae8      0x8b0 env/built-in.o
 .debug_frame   0x0000000000018398     0x1080 fs/built-in.o
 .debug_frame   0x0000000000019418     0x8588 lib/built-in.o
 .debug_frame   0x00000000000219a0     0x1448 net/built-in.o

.debug_loc      0x0000000000000000   0x168e8d
 .debug_loc     0x0000000000000000     0x8011 arch/arm/cpu/armv8/built-in.o
 .debug_loc     0x0000000000008011     0x1475 arch/arm/lib/built-in.o
 .debug_loc     0x0000000000009486     0x156c board/freescale/common/built-in.o
 .debug_loc     0x000000000000a9f2      0x783 board/freescale/ls1046afrwy/built-in.o
 .debug_loc     0x000000000000b175    0x286e6 cmd/built-in.o
 .debug_loc     0x000000000003385b    0x2ffec common/built-in.o
 .debug_loc     0x0000000000063847     0x5903 disk/built-in.o
 .debug_loc     0x000000000006914a    0x2eeb1 drivers/built-in.o
 .debug_loc     0x0000000000097ffb     0xbdea drivers/ddr/fsl/built-in.o
 .debug_loc     0x00000000000a3de5     0x2b07 drivers/i2c/built-in.o
 .debug_loc     0x00000000000a68ec     0x5000 drivers/mtd/built-in.o
 .debug_loc     0x00000000000ab8ec    0x16f17 drivers/mtd/nand/raw/built-in.o
 .debug_loc     0x00000000000c2803     0x527b drivers/mtd/spi/built-in.o
 .debug_loc     0x00000000000c7a7e     0xa3c8 drivers/net/built-in.o
 .debug_loc     0x00000000000d1e46     0x523c drivers/net/fm/built-in.o
 .debug_loc     0x00000000000d7082     0x3e06 drivers/net/phy/built-in.o
 .debug_loc     0x00000000000dae88      0xeba drivers/power/built-in.o
 .debug_loc     0x00000000000dbd42       0x82 drivers/power/pmic/built-in.o
 .debug_loc     0x00000000000dbdc4     0x1391 drivers/serial/built-in.o
 .debug_loc     0x00000000000dd155     0x7107 drivers/spi/built-in.o
 .debug_loc     0x00000000000e425c     0x130f drivers/usb/common/built-in.o
 .debug_loc     0x00000000000e556b     0xc32d drivers/usb/host/built-in.o
 .debug_loc     0x00000000000f1898     0x3f7e env/built-in.o
 .debug_loc     0x00000000000f5816     0x9704 fs/built-in.o
 .debug_loc     0x00000000000fef1a    0x60fcf lib/built-in.o
 .debug_loc     0x000000000015fee9     0x8fa4 net/built-in.o

.debug_ranges   0x0000000000000000    0x263b0
 .debug_ranges  0x0000000000000000     0x1a00 arch/arm/cpu/armv8/built-in.o
 .debug_ranges  0x0000000000001a00      0x330 arch/arm/lib/built-in.o
 .debug_ranges  0x0000000000001d30      0x330 board/freescale/common/built-in.o
 .debug_ranges  0x0000000000002060      0x220 board/freescale/ls1046afrwy/built-in.o
 .debug_ranges  0x0000000000002280     0x41f0 cmd/built-in.o
 .debug_ranges  0x0000000000006470     0x4eb0 common/built-in.o
 .debug_ranges  0x000000000000b320      0xa40 disk/built-in.o
 .debug_ranges  0x000000000000bd60     0x5ee0 drivers/built-in.o
 .debug_ranges  0x0000000000011c40     0x1280 drivers/ddr/fsl/built-in.o
 .debug_ranges  0x0000000000012ec0      0x5c0 drivers/i2c/built-in.o
 .debug_ranges  0x0000000000013480      0x6f0 drivers/mtd/built-in.o
 .debug_ranges  0x0000000000013b70     0x2270 drivers/mtd/nand/raw/built-in.o
 .debug_ranges  0x0000000000015de0      0xbf0 drivers/mtd/spi/built-in.o
 .debug_ranges  0x00000000000169d0     0x13e0 drivers/net/built-in.o
 .debug_ranges  0x0000000000017db0      0xa90 drivers/net/fm/built-in.o
 .debug_ranges  0x0000000000018840      0x9b0 drivers/net/phy/built-in.o
 .debug_ranges  0x00000000000191f0      0x200 drivers/power/built-in.o
 .debug_ranges  0x00000000000193f0       0x20 drivers/power/pmic/built-in.o
 .debug_ranges  0x0000000000019410      0x4b0 drivers/serial/built-in.o
 .debug_ranges  0x00000000000198c0      0xbf0 drivers/spi/built-in.o
 .debug_ranges  0x000000000001a4b0      0x2c0 drivers/usb/common/built-in.o
 .debug_ranges  0x000000000001a770     0x1400 drivers/usb/host/built-in.o
 .debug_ranges  0x000000000001bb70      0x890 env/built-in.o
 .debug_ranges  0x000000000001c400     0x1110 fs/built-in.o
 .debug_ranges  0x000000000001d510     0x7980 lib/built-in.o
 .debug_ranges  0x0000000000024e90     0x1520 net/built-in.o
